CCS PCH C Compiler, Version 5.112, 29001               15-dic.-24 17:46

               Filename:   C:\Users\gabog\OneDrive\Documentos\GitHub\Probador_Componentes_Electronicos\Probador184550.lst

               ROM used:   5324 bytes (16%)
                           Largest free fragment is 27440
               RAM used:   64 (3%) at main() level
                           91 (4%) worst case
               Stack used: 7 locations (6 in main + 1 for interrupts)
               Stack size: 31

*
0000:  GOTO   0BCC
*
0008:  MOVWF  04
000A:  MOVFF  FD8,05
000E:  MOVFF  FE0,06
0012:  MOVLB  0
0014:  MOVFF  FE9,0C
0018:  MOVFF  FEA,07
001C:  MOVFF  FE1,08
0020:  MOVFF  FE2,09
0024:  MOVFF  FD9,0A
0028:  MOVFF  FDA,0B
002C:  MOVFF  FF3,12
0030:  MOVFF  FF4,13
0034:  MOVFF  FFA,14
0038:  MOVFF  FF5,15
003C:  MOVFF  FF6,16
0040:  MOVFF  FF7,17
0044:  MOVFF  00,0E
0048:  MOVFF  01,0F
004C:  MOVFF  02,10
0050:  MOVFF  03,11
0054:  BTFSS  FF2.5
0056:  GOTO   0060
005A:  BTFSC  FF2.2
005C:  GOTO   00DA
0060:  BTFSS  FF0.4
0062:  GOTO   006C
0066:  BTFSC  FF0.1
0068:  GOTO   00CE
006C:  MOVFF  0E,00
0070:  MOVFF  0F,01
0074:  MOVFF  10,02
0078:  MOVFF  11,03
007C:  MOVFF  0C,FE9
0080:  MOVFF  07,FEA
0084:  BSF    07.7
0086:  MOVFF  08,FE1
008A:  MOVFF  09,FE2
008E:  MOVFF  0A,FD9
0092:  MOVFF  0B,FDA
0096:  MOVFF  12,FF3
009A:  MOVFF  13,FF4
009E:  MOVFF  14,FFA
00A2:  MOVFF  15,FF5
00A6:  MOVFF  16,FF6
00AA:  MOVFF  17,FF7
00AE:  MOVF   04,W
00B0:  MOVFF  06,FE0
00B4:  MOVFF  05,FD8
00B8:  RETFIE 0
.................... #include <18f4550.h>
.................... //////////// Standard Header file for the PIC18F4550 device ////////////////
.................... ///////////////////////////////////////////////////////////////////////////
.................... ////        (C) Copyright 1996, 2020 Custom Computer Services          ////
.................... //// This source code may only be used by licensed users of the CCS C  ////
.................... //// compiler.  This source code may only be distributed to other      ////
.................... //// licensed users of the CCS C compiler.  No other use, reproduction ////
.................... //// or distribution is permitted without written permission.          ////
.................... //// Derivative programs created using this software in object code    ////
.................... //// form are not restricted in any way.                               ////
.................... ///////////////////////////////////////////////////////////////////////////
.................... #device PIC18F4550
00BA:  CLRF   FF7
00BC:  ADDLW  CA
00BE:  MOVWF  FF6
00C0:  MOVLW  00
00C2:  ADDWFC FF7,F
00C4:  TBLRD*+
00C6:  MOVF   FF5,W
00C8:  RETURN 0
00CA:  DATA 28,0C
00CC:  DATA 01,06
*
00F4:  DATA 20,4D
00F6:  DATA 45,4E
00F8:  DATA 55,20
00FA:  DATA 50,52
00FC:  DATA 49,4E
00FE:  DATA 43,49
0100:  DATA 50,41
0102:  DATA 4C,00
0104:  DATA 20,31
0106:  DATA 3E,41
0108:  DATA 44,36
010A:  DATA 32,30
010C:  DATA 20,33
010E:  DATA 3E,4E
0110:  DATA 45,58
0112:  DATA 54,00
0114:  DATA 20,41
0116:  DATA 44,36
0118:  DATA 32,30
011A:  DATA 20,54
011C:  DATA 65,73
011E:  DATA 74,69
0120:  DATA 6E,67
0122:  DATA 2E,2E
0124:  DATA 2E,00
0126:  DATA 20,56
0128:  DATA 3A,25
012A:  DATA 30,2E
012C:  DATA 32,66
012E:  DATA 2E,20
0130:  DATA 32,3E
0132:  DATA 52,65
0134:  DATA 74,00
0136:  DATA 20,4D
0138:  DATA 45,4E
013A:  DATA 55,20
013C:  DATA 50,52
013E:  DATA 49,4E
0140:  DATA 43,49
0142:  DATA 50,41
0144:  DATA 4C,00
0146:  DATA 20,31
0148:  DATA 3E,41
014A:  DATA 44,36
014C:  DATA 32,30
014E:  DATA 20,33
0150:  DATA 3E,4E
0152:  DATA 45,58
0154:  DATA 54,00
0156:  DATA 20,31
0158:  DATA 3E,35
015A:  DATA 35,35
015C:  DATA 20,32
015E:  DATA 3E,4C
0160:  DATA 4D,32
0162:  DATA 32,34
0164:  DATA 00,00
0166:  DATA 20,34
0168:  DATA 3E,37
016A:  DATA 34,31
016C:  DATA 20,33
016E:  DATA 3E,50
0170:  DATA 61,67
0172:  DATA 2E,53
0174:  DATA 69,67
0176:  DATA 2E,00
0178:  DATA 20,35
017A:  DATA 35,35
017C:  DATA 20,54
017E:  DATA 65,73
0180:  DATA 74,69
0182:  DATA 6E,67
0184:  DATA 2E,2E
0186:  DATA 2E,00
0188:  DATA 20,32
018A:  DATA 3E,56
018C:  DATA 6F,6C
018E:  DATA 76,65
0190:  DATA 72,00
0192:  DATA 20,31
0194:  DATA 3E,35
0196:  DATA 35,35
0198:  DATA 20,32
019A:  DATA 3E,4C
019C:  DATA 4D,32
019E:  DATA 32,34
01A0:  DATA 00,00
01A2:  DATA 20,34
01A4:  DATA 3E,37
01A6:  DATA 34,31
01A8:  DATA 20,33
01AA:  DATA 3E,50
01AC:  DATA 61,67
01AE:  DATA 2E,53
01B0:  DATA 69,67
01B2:  DATA 2E,00
01B4:  DATA 4D,61
01B6:  DATA 6C,6F
01B8:  DATA 20,25
01BA:  DATA 69,00
01BC:  DATA 20,32
01BE:  DATA 3E,56
01C0:  DATA 6F,6C
01C2:  DATA 76,65
01C4:  DATA 72,00
01C6:  DATA 20,31
01C8:  DATA 3E,35
01CA:  DATA 35,35
01CC:  DATA 20,32
01CE:  DATA 3E,4C
01D0:  DATA 4D,32
01D2:  DATA 32,34
01D4:  DATA 00,00
01D6:  DATA 20,34
01D8:  DATA 3E,37
01DA:  DATA 34,31
01DC:  DATA 20,33
01DE:  DATA 3E,50
01E0:  DATA 61,67
01E2:  DATA 2E,53
01E4:  DATA 69,67
01E6:  DATA 2E,00
01E8:  DATA 42,75
01EA:  DATA 65,6E
01EC:  DATA 6F,20
01EE:  DATA 25,69
01F0:  DATA 00,00
01F2:  DATA 20,32
01F4:  DATA 3E,56
01F6:  DATA 6F,6C
01F8:  DATA 76,65
01FA:  DATA 72,00
01FC:  DATA 20,31
01FE:  DATA 3E,35
0200:  DATA 35,35
0202:  DATA 20,32
0204:  DATA 3E,4C
0206:  DATA 4D,32
0208:  DATA 32,34
020A:  DATA 00,00
020C:  DATA 20,34
020E:  DATA 3E,37
0210:  DATA 34,31
0212:  DATA 20,33
0214:  DATA 3E,50
0216:  DATA 61,67
0218:  DATA 2E,53
021A:  DATA 69,67
021C:  DATA 2E,00
021E:  DATA 20,52
0220:  DATA 65,67
0222:  DATA 72,65
0224:  DATA 73,61
0226:  DATA 6E,64
0228:  DATA 6F,2E
022A:  DATA 2E,2E
022C:  DATA 00,00
022E:  DATA 20,31
0230:  DATA 3E,35
0232:  DATA 35,35
0234:  DATA 20,32
0236:  DATA 3E,4C
0238:  DATA 4D,32
023A:  DATA 32,34
023C:  DATA 00,00
023E:  DATA 20,34
0240:  DATA 3E,37
0242:  DATA 34,31
0244:  DATA 20,33
0246:  DATA 3E,50
0248:  DATA 61,67
024A:  DATA 2E,53
024C:  DATA 69,67
024E:  DATA 2E,00
0250:  DATA 20,4C
0252:  DATA 4D,32
0254:  DATA 32,34
0256:  DATA 20,54
0258:  DATA 65,73
025A:  DATA 74,69
025C:  DATA 6E,67
025E:  DATA 2E,2E
0260:  DATA 2E,00
0262:  DATA 20,32
0264:  DATA 3E,56
0266:  DATA 6F,6C
0268:  DATA 76,65
026A:  DATA 72,00
026C:  DATA 20,41
026E:  DATA 6D,70
0270:  DATA 4F,70
0272:  DATA 2D,31
0274:  DATA 20,42
0276:  DATA 75,65
0278:  DATA 6E,6F
027A:  DATA 21,00
027C:  DATA 20,4C
027E:  DATA 4D,32
0280:  DATA 32,34
0282:  DATA 20,54
0284:  DATA 65,73
0286:  DATA 74,69
0288:  DATA 6E,67
028A:  DATA 2E,2E
028C:  DATA 2E,00
028E:  DATA 20,41
0290:  DATA 6D,70
0292:  DATA 4F,70
0294:  DATA 2D,32
0296:  DATA 20,42
0298:  DATA 75,65
029A:  DATA 6E,6F
029C:  DATA 21,00
029E:  DATA 20,4C
02A0:  DATA 4D,32
02A2:  DATA 32,34
02A4:  DATA 20,54
02A6:  DATA 65,73
02A8:  DATA 74,69
02AA:  DATA 6E,67
02AC:  DATA 2E,2E
02AE:  DATA 2E,00
02B0:  DATA 20,41
02B2:  DATA 6D,70
02B4:  DATA 4F,70
02B6:  DATA 2D,33
02B8:  DATA 20,42
02BA:  DATA 75,65
02BC:  DATA 6E,6F
02BE:  DATA 21,00
02C0:  DATA 20,4C
02C2:  DATA 4D,32
02C4:  DATA 32,34
02C6:  DATA 20,54
02C8:  DATA 65,73
02CA:  DATA 74,69
02CC:  DATA 6E,67
02CE:  DATA 2E,2E
02D0:  DATA 2E,00
02D2:  DATA 20,41
02D4:  DATA 6D,70
02D6:  DATA 4F,70
02D8:  DATA 2D,34
02DA:  DATA 20,42
02DC:  DATA 75,65
02DE:  DATA 6E,6F
02E0:  DATA 21,00
02E2:  DATA 20,4C
02E4:  DATA 4D,32
02E6:  DATA 32,34
02E8:  DATA 20,54
02EA:  DATA 65,73
02EC:  DATA 74,69
02EE:  DATA 6E,67
02F0:  DATA 2E,2E
02F2:  DATA 2E,00
02F4:  DATA 20,42
02F6:  DATA 75,65
02F8:  DATA 6E,6F
02FA:  DATA 73,20
02FC:  DATA 25,69
02FE:  DATA 00,00
0300:  DATA 20,52
0302:  DATA 65,67
0304:  DATA 72,65
0306:  DATA 73,61
0308:  DATA 6E,64
030A:  DATA 6F,2E
030C:  DATA 2E,2E
030E:  DATA 00,00
0310:  DATA 20,31
0312:  DATA 3E,35
0314:  DATA 35,35
0316:  DATA 20,32
0318:  DATA 3E,4C
031A:  DATA 4D,32
031C:  DATA 32,34
031E:  DATA 00,00
0320:  DATA 20,34
0322:  DATA 3E,37
0324:  DATA 34,31
0326:  DATA 20,33
0328:  DATA 3E,50
032A:  DATA 61,67
032C:  DATA 2E,53
032E:  DATA 69,67
0330:  DATA 2E,00
0332:  DATA 20,52
0334:  DATA 65,67
0336:  DATA 72,65
0338:  DATA 73,61
033A:  DATA 6E,64
033C:  DATA 6F,2E
033E:  DATA 2E,2E
0340:  DATA 00,00
0342:  DATA 20,31
0344:  DATA 3E,35
0346:  DATA 35,35
0348:  DATA 20,32
034A:  DATA 3E,4C
034C:  DATA 4D,32
034E:  DATA 32,34
0350:  DATA 00,00
0352:  DATA 20,34
0354:  DATA 3E,37
0356:  DATA 34,31
0358:  DATA 20,33
035A:  DATA 3E,50
035C:  DATA 61,67
035E:  DATA 2E,53
0360:  DATA 69,67
0362:  DATA 2E,00
0364:  DATA 20,37
0366:  DATA 34,31
0368:  DATA 20,54
036A:  DATA 65,73
036C:  DATA 74,69
036E:  DATA 6E,67
0370:  DATA 2E,2E
0372:  DATA 2E,00
0374:  DATA 20,32
0376:  DATA 3E,56
0378:  DATA 6F,6C
037A:  DATA 76,65
037C:  DATA 72,00
037E:  DATA 20,41
0380:  DATA 6D,70
0382:  DATA 4F,70
0384:  DATA 20,42
0386:  DATA 75,65
0388:  DATA 6E,6F
038A:  DATA 21,00
038C:  DATA 20,52
038E:  DATA 65,67
0390:  DATA 72,65
0392:  DATA 73,61
0394:  DATA 6E,64
0396:  DATA 6F,2E
0398:  DATA 2E,2E
039A:  DATA 00,00
039C:  DATA 20,31
039E:  DATA 3E,35
03A0:  DATA 35,35
03A2:  DATA 20,32
03A4:  DATA 3E,4C
03A6:  DATA 4D,32
03A8:  DATA 32,34
03AA:  DATA 00,00
03AC:  DATA 20,34
03AE:  DATA 3E,37
03B0:  DATA 34,31
03B2:  DATA 20,33
03B4:  DATA 3E,50
03B6:  DATA 61,67
03B8:  DATA 2E,53
03BA:  DATA 69,67
03BC:  DATA 2E,00
03BE:  DATA 20,52
03C0:  DATA 65,67
03C2:  DATA 72,65
03C4:  DATA 73,61
03C6:  DATA 6E,64
03C8:  DATA 6F,2E
03CA:  DATA 2E,2E
03CC:  DATA 00,00
03CE:  DATA 20,31
03D0:  DATA 3E,35
03D2:  DATA 35,35
03D4:  DATA 20,32
03D6:  DATA 3E,4C
03D8:  DATA 4D,32
03DA:  DATA 32,34
03DC:  DATA 00,00
03DE:  DATA 20,34
03E0:  DATA 3E,37
03E2:  DATA 34,31
03E4:  DATA 20,33
03E6:  DATA 3E,50
03E8:  DATA 61,67
03EA:  DATA 2E,53
03EC:  DATA 69,67
03EE:  DATA 2E,00
03F0:  DATA 20,31
03F2:  DATA 3E,4C
03F4:  DATA 4D,33
03F6:  DATA 35,38
03F8:  DATA 20,32
03FA:  DATA 3E,4C
03FC:  DATA 4D,33
03FE:  DATA 34,38
0400:  DATA 00,00
0402:  DATA 20,34
0404:  DATA 3E,4C
0406:  DATA 4D,33
0408:  DATA 32,34
040A:  DATA 20,33
040C:  DATA 3E,52
040E:  DATA 45,54
0410:  DATA 55,52
0412:  DATA 4E,00
0414:  DATA 20,4C
0416:  DATA 4D,33
0418:  DATA 32,34
041A:  DATA 20,54
041C:  DATA 65,73
041E:  DATA 74,69
0420:  DATA 6E,67
0422:  DATA 2E,2E
0424:  DATA 2E,00
0426:  DATA 20,32
0428:  DATA 3E,56
042A:  DATA 6F,6C
042C:  DATA 76,65
042E:  DATA 72,00
0430:  DATA 20,52
0432:  DATA 65,67
0434:  DATA 72,65
0436:  DATA 73,61
0438:  DATA 6E,64
043A:  DATA 6F,2E
043C:  DATA 2E,2E
043E:  DATA 00,00
*
06EC:  TBLRD*+
06EE:  MOVF   FF5,F
06F0:  BZ    070A
06F2:  MOVFF  FF6,3F
06F6:  MOVFF  FF7,40
06FA:  MOVFF  FF5,4C
06FE:  RCALL  06AA
0700:  MOVFF  3F,FF6
0704:  MOVFF  40,FF7
0708:  BRA    06EC
070A:  RETURN 0
*
076A:  MOVLW  8E
076C:  MOVWF  00
076E:  MOVFF  40,01
0772:  MOVFF  3F,02
0776:  CLRF   03
0778:  MOVF   01,F
077A:  BNZ   078E
077C:  MOVFF  02,01
0780:  CLRF   02
0782:  MOVLW  08
0784:  SUBWF  00,F
0786:  MOVF   01,F
0788:  BNZ   078E
078A:  CLRF   00
078C:  BRA    079E
078E:  BCF    FD8.0
0790:  BTFSC  01.7
0792:  BRA    079C
0794:  RLCF   02,F
0796:  RLCF   01,F
0798:  DECF   00,F
079A:  BRA    078E
079C:  BCF    01.7
079E:  GOTO   0CB6 (RETURN)
07A2:  MOVF   4C,W
07A4:  BTFSC  FD8.2
07A6:  BRA    088A
07A8:  MOVWF  00
07AA:  MOVF   50,W
07AC:  BTFSC  FD8.2
07AE:  BRA    088A
07B0:  ADDWF  00,F
07B2:  BNC   07BC
07B4:  MOVLW  81
07B6:  ADDWF  00,F
07B8:  BC    088A
07BA:  BRA    07C4
07BC:  MOVLW  7F
07BE:  SUBWF  00,F
07C0:  BNC   088A
07C2:  BZ    088A
07C4:  MOVFF  4D,54
07C8:  MOVF   51,W
07CA:  XORWF  54,F
07CC:  BSF    4D.7
07CE:  BSF    51.7
07D0:  MOVF   4F,W
07D2:  MULWF  53
07D4:  MOVFF  FF4,56
07D8:  MOVF   4E,W
07DA:  MULWF  52
07DC:  MOVFF  FF4,03
07E0:  MOVFF  FF3,55
07E4:  MULWF  53
07E6:  MOVF   FF3,W
07E8:  ADDWF  56,F
07EA:  MOVF   FF4,W
07EC:  ADDWFC 55,F
07EE:  MOVLW  00
07F0:  ADDWFC 03,F
07F2:  MOVF   4F,W
07F4:  MULWF  52
07F6:  MOVF   FF3,W
07F8:  ADDWF  56,F
07FA:  MOVF   FF4,W
07FC:  ADDWFC 55,F
07FE:  MOVLW  00
0800:  CLRF   02
0802:  ADDWFC 03,F
0804:  ADDWFC 02,F
0806:  MOVF   4D,W
0808:  MULWF  53
080A:  MOVF   FF3,W
080C:  ADDWF  55,F
080E:  MOVF   FF4,W
0810:  ADDWFC 03,F
0812:  MOVLW  00
0814:  ADDWFC 02,F
0816:  MOVF   4D,W
0818:  MULWF  52
081A:  MOVF   FF3,W
081C:  ADDWF  03,F
081E:  MOVF   FF4,W
0820:  ADDWFC 02,F
0822:  MOVLW  00
0824:  CLRF   01
0826:  ADDWFC 01,F
0828:  MOVF   4F,W
082A:  MULWF  51
082C:  MOVF   FF3,W
082E:  ADDWF  55,F
0830:  MOVF   FF4,W
0832:  ADDWFC 03,F
0834:  MOVLW  00
0836:  ADDWFC 02,F
0838:  ADDWFC 01,F
083A:  MOVF   4E,W
083C:  MULWF  51
083E:  MOVF   FF3,W
0840:  ADDWF  03,F
0842:  MOVF   FF4,W
0844:  ADDWFC 02,F
0846:  MOVLW  00
0848:  ADDWFC 01,F
084A:  MOVF   4D,W
084C:  MULWF  51
084E:  MOVF   FF3,W
0850:  ADDWF  02,F
0852:  MOVF   FF4,W
0854:  ADDWFC 01,F
0856:  INCF   00,F
0858:  BTFSC  01.7
085A:  BRA    0866
085C:  RLCF   55,F
085E:  RLCF   03,F
0860:  RLCF   02,F
0862:  RLCF   01,F
0864:  DECF   00,F
0866:  MOVLW  00
0868:  BTFSS  55.7
086A:  BRA    0880
086C:  INCF   03,F
086E:  ADDWFC 02,F
0870:  ADDWFC 01,F
0872:  MOVF   01,W
0874:  BNZ   0880
0876:  MOVF   02,W
0878:  BNZ   0880
087A:  MOVF   03,W
087C:  BNZ   0880
087E:  INCF   00,F
0880:  BTFSC  54.7
0882:  BSF    01.7
0884:  BTFSS  54.7
0886:  BCF    01.7
0888:  BRA    0892
088A:  CLRF   00
088C:  CLRF   01
088E:  CLRF   02
0890:  CLRF   03
0892:  RETURN 0
0894:  TBLRD*+
0896:  MOVFF  FF6,40
089A:  MOVFF  FF7,41
089E:  MOVFF  FF5,4C
08A2:  RCALL  06AA
08A4:  MOVFF  40,FF6
08A8:  MOVFF  41,FF7
08AC:  DECFSZ 3F,F
08AE:  BRA    0894
08B0:  RETURN 0
08B2:  MOVF   4C,W
08B4:  SUBLW  B6
08B6:  MOVWF  4C
08B8:  CLRF   03
08BA:  MOVFF  4D,50
08BE:  BSF    4D.7
08C0:  BCF    FD8.0
08C2:  RRCF   4D,F
08C4:  RRCF   4E,F
08C6:  RRCF   4F,F
08C8:  RRCF   03,F
08CA:  RRCF   02,F
08CC:  RRCF   01,F
08CE:  RRCF   00,F
08D0:  DECFSZ 4C,F
08D2:  BRA    08C0
08D4:  BTFSS  50.7
08D6:  BRA    08EE
08D8:  COMF   00,F
08DA:  COMF   01,F
08DC:  COMF   02,F
08DE:  COMF   03,F
08E0:  INCF   00,F
08E2:  BTFSC  FD8.2
08E4:  INCF   01,F
08E6:  BTFSC  FD8.2
08E8:  INCF   02,F
08EA:  BTFSC  FD8.2
08EC:  INCF   03,F
08EE:  GOTO   09CE (RETURN)
08F2:  BTFSC  FD8.1
08F4:  BRA    08FC
08F6:  CLRF   FEA
08F8:  MOVLW  54
08FA:  MOVWF  FE9
08FC:  CLRF   00
08FE:  CLRF   01
0900:  CLRF   02
0902:  CLRF   03
0904:  CLRF   54
0906:  CLRF   55
0908:  CLRF   56
090A:  CLRF   57
090C:  MOVF   53,W
090E:  IORWF  52,W
0910:  IORWF  51,W
0912:  IORWF  50,W
0914:  BZ    096E
0916:  MOVLW  20
0918:  MOVWF  58
091A:  BCF    FD8.0
091C:  RLCF   4C,F
091E:  RLCF   4D,F
0920:  RLCF   4E,F
0922:  RLCF   4F,F
0924:  RLCF   54,F
0926:  RLCF   55,F
0928:  RLCF   56,F
092A:  RLCF   57,F
092C:  MOVF   53,W
092E:  SUBWF  57,W
0930:  BNZ   0942
0932:  MOVF   52,W
0934:  SUBWF  56,W
0936:  BNZ   0942
0938:  MOVF   51,W
093A:  SUBWF  55,W
093C:  BNZ   0942
093E:  MOVF   50,W
0940:  SUBWF  54,W
0942:  BNC   0962
0944:  MOVF   50,W
0946:  SUBWF  54,F
0948:  MOVF   51,W
094A:  BTFSS  FD8.0
094C:  INCFSZ 51,W
094E:  SUBWF  55,F
0950:  MOVF   52,W
0952:  BTFSS  FD8.0
0954:  INCFSZ 52,W
0956:  SUBWF  56,F
0958:  MOVF   53,W
095A:  BTFSS  FD8.0
095C:  INCFSZ 53,W
095E:  SUBWF  57,F
0960:  BSF    FD8.0
0962:  RLCF   00,F
0964:  RLCF   01,F
0966:  RLCF   02,F
0968:  RLCF   03,F
096A:  DECFSZ 58,F
096C:  BRA    091A
096E:  MOVFF  54,FEF
0972:  MOVFF  55,FEC
0976:  MOVFF  56,FEC
097A:  MOVFF  57,FEC
097E:  RETURN 0
0980:  MOVF   FE9,W
0982:  MOVWF  44
0984:  MOVF   43,W
0986:  MOVWF  46
0988:  BZ    09BC
098A:  MOVFF  42,4F
098E:  MOVFF  41,4E
0992:  MOVFF  40,4D
0996:  MOVFF  3F,4C
099A:  CLRF   53
099C:  CLRF   52
099E:  MOVLW  20
09A0:  MOVWF  51
09A2:  MOVLW  82
09A4:  MOVWF  50
09A6:  RCALL  07A2
09A8:  MOVFF  03,42
09AC:  MOVFF  02,41
09B0:  MOVFF  01,40
09B4:  MOVFF  00,3F
09B8:  DECFSZ 46,F
09BA:  BRA    098A
09BC:  MOVFF  42,4F
09C0:  MOVFF  41,4E
09C4:  MOVFF  40,4D
09C8:  MOVFF  3F,4C
09CC:  BRA    08B2
09CE:  MOVFF  03,42
09D2:  MOVFF  02,41
09D6:  MOVFF  01,40
09DA:  MOVFF  00,3F
09DE:  BTFSS  42.7
09E0:  BRA    09FC
09E2:  DECF   44,F
09E4:  BSF    44.5
09E6:  COMF   3F,F
09E8:  COMF   40,F
09EA:  COMF   41,F
09EC:  COMF   42,F
09EE:  INCF   3F,F
09F0:  BTFSC  FD8.2
09F2:  INCF   40,F
09F4:  BTFSC  FD8.2
09F6:  INCF   41,F
09F8:  BTFSC  FD8.2
09FA:  INCF   42,F
09FC:  MOVLW  3B
09FE:  MOVWF  4B
0A00:  MOVLW  9A
0A02:  MOVWF  4A
0A04:  MOVLW  CA
0A06:  MOVWF  49
0A08:  CLRF   48
0A0A:  MOVLW  0A
0A0C:  MOVWF  46
0A0E:  MOVF   43,W
0A10:  BTFSC  FD8.2
0A12:  INCF   44,F
0A14:  BSF    FD8.1
0A16:  CLRF   FEA
0A18:  MOVLW  3F
0A1A:  MOVWF  FE9
0A1C:  MOVFF  42,4F
0A20:  MOVFF  41,4E
0A24:  MOVFF  40,4D
0A28:  MOVFF  3F,4C
0A2C:  MOVFF  4B,53
0A30:  MOVFF  4A,52
0A34:  MOVFF  49,51
0A38:  MOVFF  48,50
0A3C:  RCALL  08F2
0A3E:  MOVF   01,W
0A40:  MOVF   00,F
0A42:  BNZ   0A62
0A44:  INCF   43,W
0A46:  SUBWF  46,W
0A48:  BZ    0A62
0A4A:  MOVF   44,W
0A4C:  BZ    0A66
0A4E:  ANDLW  0F
0A50:  SUBWF  46,W
0A52:  BZ    0A56
0A54:  BC    0AC4
0A56:  BTFSC  44.7
0A58:  BRA    0AC4
0A5A:  BTFSC  44.6
0A5C:  BRA    0A66
0A5E:  MOVLW  20
0A60:  BRA    0ABC
0A62:  MOVLW  20
0A64:  ANDWF  44,F
0A66:  BTFSS  44.5
0A68:  BRA    0A82
0A6A:  BCF    44.5
0A6C:  MOVF   43,W
0A6E:  BTFSS  FD8.2
0A70:  DECF   44,F
0A72:  MOVF   00,W
0A74:  MOVWF  44
0A76:  MOVLW  2D
0A78:  MOVWF  4C
0A7A:  RCALL  06AA
0A7C:  MOVF   44,W
0A7E:  MOVWF  00
0A80:  CLRF   44
0A82:  MOVF   43,W
0A84:  SUBWF  46,W
0A86:  BNZ   0A9C
0A88:  MOVF   00,W
0A8A:  MOVWF  44
0A8C:  MOVLW  2E
0A8E:  MOVWF  4C
0A90:  RCALL  06AA
0A92:  MOVF   44,W
0A94:  MOVWF  00
0A96:  MOVLW  20
0A98:  ANDWF  44,F
0A9A:  MOVLW  00
0A9C:  MOVLW  30
0A9E:  BTFSS  44.5
0AA0:  BRA    0ABC
0AA2:  BCF    44.5
0AA4:  MOVF   43,W
0AA6:  BTFSS  FD8.2
0AA8:  DECF   44,F
0AAA:  MOVF   00,W
0AAC:  MOVWF  44
0AAE:  MOVLW  2D
0AB0:  MOVWF  4C
0AB2:  RCALL  06AA
0AB4:  MOVF   44,W
0AB6:  MOVWF  00
0AB8:  CLRF   44
0ABA:  MOVLW  30
0ABC:  ADDWF  00,F
0ABE:  MOVFF  00,4C
0AC2:  RCALL  06AA
0AC4:  BCF    FD8.1
0AC6:  MOVFF  4B,4F
0ACA:  MOVFF  4A,4E
0ACE:  MOVFF  49,4D
0AD2:  MOVFF  48,4C
0AD6:  CLRF   53
0AD8:  CLRF   52
0ADA:  CLRF   51
0ADC:  MOVLW  0A
0ADE:  MOVWF  50
0AE0:  RCALL  08F2
0AE2:  MOVFF  03,4B
0AE6:  MOVFF  02,4A
0AEA:  MOVFF  01,49
0AEE:  MOVFF  00,48
0AF2:  DECFSZ 46,F
0AF4:  BRA    0A14
0AF6:  GOTO   0D54 (RETURN)
0AFA:  MOVF   46,W
0AFC:  CLRF   01
0AFE:  SUBWF  45,W
0B00:  BC    0B08
0B02:  MOVFF  45,00
0B06:  BRA    0B20
0B08:  CLRF   00
0B0A:  MOVLW  08
0B0C:  MOVWF  47
0B0E:  RLCF   45,F
0B10:  RLCF   00,F
0B12:  MOVF   46,W
0B14:  SUBWF  00,W
0B16:  BTFSC  FD8.0
0B18:  MOVWF  00
0B1A:  RLCF   01,F
0B1C:  DECFSZ 47,F
0B1E:  BRA    0B0E
0B20:  RETURN 0
0B22:  MOVLW  20
0B24:  BTFSS  40.4
0B26:  MOVLW  30
0B28:  MOVWF  41
0B2A:  MOVFF  3F,00
0B2E:  BTFSS  3F.7
0B30:  BRA    0B42
0B32:  COMF   00,F
0B34:  INCF   00,F
0B36:  MOVFF  00,3F
0B3A:  MOVLW  2D
0B3C:  MOVWF  41
0B3E:  BSF    40.7
0B40:  BSF    40.0
0B42:  MOVF   01,W
0B44:  MOVFF  3F,45
0B48:  MOVLW  64
0B4A:  MOVWF  46
0B4C:  RCALL  0AFA
0B4E:  MOVFF  00,3F
0B52:  MOVLW  30
0B54:  ADDWF  01,W
0B56:  MOVWF  42
0B58:  MOVFF  3F,45
0B5C:  MOVLW  0A
0B5E:  MOVWF  46
0B60:  RCALL  0AFA
0B62:  MOVLW  30
0B64:  ADDWF  00,W
0B66:  MOVWF  44
0B68:  MOVLW  30
0B6A:  ADDWF  01,W
0B6C:  MOVWF  43
0B6E:  MOVFF  41,00
0B72:  MOVLW  30
0B74:  SUBWF  42,W
0B76:  BZ    0B80
0B78:  BSF    40.1
0B7A:  BTFSC  40.7
0B7C:  BSF    40.2
0B7E:  BRA    0BA4
0B80:  MOVFF  41,42
0B84:  MOVLW  20
0B86:  MOVWF  41
0B88:  MOVLW  30
0B8A:  SUBWF  43,W
0B8C:  BZ    0B96
0B8E:  BSF    40.0
0B90:  BTFSC  40.7
0B92:  BSF    40.1
0B94:  BRA    0BA4
0B96:  BTFSS  FD8.2
0B98:  BSF    40.0
0B9A:  BNZ   0BA4
0B9C:  MOVFF  42,43
0BA0:  MOVLW  20
0BA2:  MOVWF  42
0BA4:  BTFSC  40.2
0BA6:  BRA    0BB2
0BA8:  BTFSC  40.1
0BAA:  BRA    0BB8
0BAC:  BTFSC  40.0
0BAE:  BRA    0BBE
0BB0:  BRA    0BC4
0BB2:  MOVFF  41,4C
0BB6:  RCALL  06AA
0BB8:  MOVFF  42,4C
0BBC:  RCALL  06AA
0BBE:  MOVFF  43,4C
0BC2:  RCALL  06AA
0BC4:  MOVFF  44,4C
0BC8:  RCALL  06AA
0BCA:  RETURN 0
.................... 
.................... #list
.................... 
.................... #device ADC = 10
.................... #use i2c(Master,Fast=100000, sda=PIN_B0, scl=PIN_B1,force_sw)
*
0468:  MOVLW  08
046A:  MOVWF  01
046C:  NOP   
046E:  BCF    F8A.1
0470:  BCF    F93.1
0472:  NOP   
0474:  RLCF   5A,F
0476:  BCF    F8A.0
0478:  BTFSC  FD8.0
047A:  BSF    F93.0
047C:  BTFSS  FD8.0
047E:  BCF    F93.0
0480:  BSF    F93.1
0482:  BTFSS  F81.1
0484:  BRA    0482
0486:  DECFSZ 01,F
0488:  BRA    046C
048A:  NOP   
048C:  BCF    F8A.1
048E:  BCF    F93.1
0490:  NOP   
0492:  BSF    F93.0
0494:  NOP   
0496:  NOP   
0498:  BSF    F93.1
049A:  BTFSS  F81.1
049C:  BRA    049A
049E:  CLRF   01
04A0:  NOP   
04A2:  BTFSC  F81.0
04A4:  BSF    01.0
04A6:  BCF    F8A.1
04A8:  BCF    F93.1
04AA:  BCF    F8A.0
04AC:  BCF    F93.0
04AE:  RETURN 0
.................... #include <i2c_Flex_LCD.c>
.................... //----------------------------------------------------------------------------- 
.................... // Title:         i2c_Flex_LCD 
.................... // Description:   Driver for common LCD with 1/2/3 or 4 rows by 1...20 columns 
.................... //                using PCF8574T interface board with I2C protocol. 
.................... // Date:          Nov-2013 
.................... // Ver.Rev.:      1.1 
.................... // Author:        Hugo Silva (sergio-hugo@bol.com.br) #Based on the routines of 
.................... //                "20X4_LCD_I2C_DRIVER.h" from Pumrin S. and "lcd4_i2c.c" from XP8100 
.................... //----------------------------------------------------------------------------- 
.................... // 
.................... // lcd_init() Must be called before any other function. 
.................... // 
.................... // lcd_putc(c) Will display c on the next position of the LCD. 
.................... //  
.................... //     \f Clear LCD display 
.................... //     \n Set write position on next lcd line 
.................... //     \b LCD backspace 
.................... //     lcd_gotoxy(x,y) Set write position on LCD (upper left is 1,1) 
.................... // 
.................... // lcd_backlight_led(ON)/lcd_backlight_led(OFF) = Turn ON/OFF LCD Backlight LED 
.................... // 
.................... //----------------------------------------------------------------------------- 
.................... // LCD pins D0-D3 are not used. 
.................... //----------------------------------------------------------------------------- 
.................... // 
.................... // Comment   : Control of a compatible LCD (1...4 rows by 1...4 columns) from 
.................... //              a bus I2C with an EXPANDER of I/O with connection I2C. 
.................... //              The tests of these routines have been programmed using the IC 
.................... //              Phillips PCF8574T. I've used 4 bits mode programming. 
.................... //              The 8 bits mode programming is possible if you use 2 x PCF8574T. 
.................... //              RW Pin is not being used. 
.................... // 
.................... // As defined in the following structure the pin connection is as follows: 
.................... // 
.................... //  PCF8574P     LCD 
.................... //  ========     ====== 
.................... //     P0        RS 
.................... //     P1        RW    (Not used!) 
.................... //     P2        Enable  
.................... //     P3        Led Backlight 
.................... //     P4        D4 
.................... //     P5        D5 
.................... //     P6        D6 
.................... //     P7        D7 
.................... // 
.................... //  The SCL and SDA pins should be pull-up resistor as shown below: 
.................... // 
.................... //             +5v 
.................... //               | 
.................... //               < 
.................... //               > 4.7K        
.................... //               <          
.................... //To PIC         |          To i2c slave 
.................... //pin xx ------------------ SDA pin  
.................... //(SDA)                      
.................... //              +5v 
.................... //               | 
.................... //               < 
.................... //               > 4.7K        
.................... //               <          
.................... //To PIC         |          To i2c slave 
.................... //pin xx ------------------ SCL pin  
.................... //(SCL) 
.................... // 
.................... //To PIC                    To i2c slave 
.................... //Vss pin ----------------- Vss or ground pin  
.................... //                | 
.................... //              ----- 
.................... //               ---  Ground 
.................... //                -  
.................... //  
.................... // THIS DOCUMENT IS PROVIDED TO THE USER "AS IS" 
.................... //----------------------------------------------------------------------------- 
.................... byte LCD_ADDR ;//             0x4E        //I2C slave address for LCD module 
.................... byte lcd_total_rows ;//       2           //Number of rows: 1,2,3 or 4 
.................... byte lcd_total_columns ;//    16          //Number of columns: 1...20   
.................... 
.................... #define RS                    0b00000001  //P0 - PCF8574T Pin connected to RS 
.................... #define RW                    0b00000010  //P1 - PCF8574T Pin connected to RW 
.................... #define ENABLE                0b00000100  //P2 - PCF8574T Pin connected to EN 
.................... #define LCD_BACKLIGHT         0b00001000  //P3 - PCF8574T Pin connected to BACKLIGHT LED 
.................... 
.................... #define addr_row_one          0x00        //LCD RAM address for row 1 
.................... #define addr_row_two          0x40        //LCD RAM address for row 2 
.................... #define addr_row_three        0x14        //LCD RAM address for row 3 
.................... #define addr_row_four         0x54        //LCD RAM address for row 4 
.................... 
.................... #define ON                    1 
.................... #define OFF                   0 
.................... #define NOT                   ~ 
.................... #define data_shifted          data<<4 
.................... 
.................... #use delay(clock=4Mhz)
*
0440:  CLRF   FEA
0442:  MOVLW  4D
0444:  MOVWF  FE9
0446:  MOVF   FEF,W
0448:  BZ    0466
044A:  MOVLW  01
044C:  MOVWF  01
044E:  CLRF   00
0450:  DECFSZ 00,F
0452:  BRA    0450
0454:  DECFSZ 01,F
0456:  BRA    044E
0458:  MOVLW  4A
045A:  MOVWF  00
045C:  DECFSZ 00,F
045E:  BRA    045C
0460:  BRA    0462
0462:  DECFSZ FEF,F
0464:  BRA    044A
0466:  RETURN 0
.................... int8 new_row_request=1, BACKLIGHT_LED=LCD_BACKLIGHT; 
.................... 
.................... void lcd_backlight_led(byte bl) 
.................... {  
....................       If (bl) BACKLIGHT_LED=LCD_BACKLIGHT; else BACKLIGHT_LED=OFF; 
.................... } 
.................... 
.................... void i2c_send_nibble(byte data, byte type) 
.................... {    
....................    switch (type) 
*
04B0:  MOVF   58,W
04B2:  XORLW  00
04B4:  BZ    04BC
04B6:  XORLW  01
04B8:  BZ    04FC
04BA:  BRA    053E
....................    {      
....................       case 0 :      
....................       i2c_write(data_shifted | BACKLIGHT_LED); 
04BC:  SWAPF  57,W
04BE:  MOVWF  00
04C0:  MOVLW  F0
04C2:  ANDWF  00,F
04C4:  MOVF   00,W
04C6:  IORWF  1D,W
04C8:  MOVWF  59
04CA:  MOVWF  5A
04CC:  RCALL  0468
....................       delay_cycles(1); 
04CE:  NOP   
....................       i2c_write(data_shifted | ENABLE | BACKLIGHT_LED ); 
04D0:  SWAPF  57,W
04D2:  MOVWF  00
04D4:  MOVLW  F0
04D6:  ANDWF  00,F
04D8:  MOVF   00,W
04DA:  IORLW  04
04DC:  IORWF  1D,W
04DE:  MOVWF  59
04E0:  MOVWF  5A
04E2:  RCALL  0468
....................       delay_us(2); 
04E4:  BRA    04E6
....................       i2c_write(data_shifted & NOT ENABLE | BACKLIGHT_LED); 
04E6:  SWAPF  57,W
04E8:  MOVWF  00
04EA:  MOVLW  F0
04EC:  ANDWF  00,F
04EE:  MOVF   00,W
04F0:  ANDLW  FB
04F2:  IORWF  1D,W
04F4:  MOVWF  59
04F6:  MOVWF  5A
04F8:  RCALL  0468
....................       break; 
04FA:  BRA    053E
....................       
....................       case 1 : 
....................       i2c_write(data_shifted | RS | BACKLIGHT_LED); 
04FC:  SWAPF  57,W
04FE:  MOVWF  00
0500:  MOVLW  F0
0502:  ANDWF  00,F
0504:  MOVF   00,W
0506:  IORLW  01
0508:  IORWF  1D,W
050A:  MOVWF  59
050C:  MOVWF  5A
050E:  RCALL  0468
....................       delay_cycles(1); 
0510:  NOP   
....................       i2c_write(data_shifted | RS | ENABLE | BACKLIGHT_LED ); 
0512:  SWAPF  57,W
0514:  MOVWF  00
0516:  MOVLW  F0
0518:  ANDWF  00,F
051A:  MOVF   00,W
051C:  IORLW  01
051E:  IORLW  04
0520:  IORWF  1D,W
0522:  MOVWF  59
0524:  MOVWF  5A
0526:  RCALL  0468
....................       delay_us(2); 
0528:  BRA    052A
....................       i2c_write(data_shifted | RS | BACKLIGHT_LED); 
052A:  SWAPF  57,W
052C:  MOVWF  00
052E:  MOVLW  F0
0530:  ANDWF  00,F
0532:  MOVF   00,W
0534:  IORLW  01
0536:  IORWF  1D,W
0538:  MOVWF  59
053A:  MOVWF  5A
053C:  RCALL  0468
....................       break; 
....................    } 
053E:  RETURN 0
.................... } 
....................     
.................... void lcd_send_byte(byte data, byte type) 
....................    { 
....................         i2c_start(); 
0540:  BSF    F93.0
0542:  NOP   
0544:  BSF    F93.1
0546:  NOP   
0548:  BCF    F8A.0
054A:  BCF    F93.0
054C:  NOP   
054E:  BCF    F8A.1
0550:  BCF    F93.1
....................         i2c_write(LCD_ADDR); 
0552:  MOVFF  19,5A
0556:  RCALL  0468
....................         i2c_send_nibble(data >> 4 , type); 
0558:  SWAPF  54,W
055A:  MOVWF  56
055C:  MOVLW  0F
055E:  ANDWF  56,F
0560:  MOVFF  56,57
0564:  MOVFF  55,58
0568:  RCALL  04B0
....................         i2c_send_nibble(data & 0xf , type); 
056A:  MOVF   54,W
056C:  ANDLW  0F
056E:  MOVWF  56
0570:  MOVWF  57
0572:  MOVFF  55,58
0576:  RCALL  04B0
....................         i2c_stop();        
0578:  BCF    F93.0
057A:  NOP   
057C:  BSF    F93.1
057E:  BTFSS  F81.1
0580:  BRA    057E
0582:  NOP   
0584:  BRA    0586
0586:  NOP   
0588:  BSF    F93.0
058A:  NOP   
058C:  RETURN 0
....................    } 
.................... 
.................... void lcd_clear() 
.................... {  
....................         lcd_send_byte(0x01,0); 
058E:  MOVLW  01
0590:  MOVWF  54
0592:  CLRF   55
0594:  RCALL  0540
....................         delay_ms(2); 
0596:  MOVLW  02
0598:  MOVWF  4D
059A:  RCALL  0440
....................         new_row_request=1; 
059C:  MOVLW  01
059E:  MOVWF  1C
05A0:  RETURN 0
.................... } 
.................... 
.................... void lcd_init(byte ADDR, byte col, byte row) 
.................... { 
....................    byte i;
....................    byte CONST lcd_type=2;  // 0=5x7, 1=5x10, 2=2 lines 
....................    byte CONST LCD_INIT_STRING[4] = {0x20 | (lcd_type << 2), 0xc, 1, 6}; // These bytes need to be sent to the LCD to start it up.
....................    
....................    LCD_ADDR =ADDR;//             0x4E        //I2C slave address for LCD module 
05A2:  MOVFF  3F,19
....................    lcd_total_rows =row;//       2           //Number of rows: 1,2,3 or 4 
05A6:  MOVFF  41,1A
....................    lcd_total_columns= col ;
05AA:  MOVFF  40,1B
....................    disable_interrupts(GLOBAL); 
05AE:  BCF    FF2.6
05B0:  BCF    FF2.7
05B2:  BTFSC  FF2.7
05B4:  BRA    05B0
....................    delay_ms(50); //LCD power up delay 
05B6:  MOVLW  32
05B8:  MOVWF  4D
05BA:  RCALL  0440
....................     
....................    i2c_start(); 
05BC:  BSF    F93.0
05BE:  NOP   
05C0:  BSF    F93.1
05C2:  NOP   
05C4:  BCF    F8A.0
05C6:  BCF    F93.0
05C8:  NOP   
05CA:  BCF    F8A.1
05CC:  BCF    F93.1
....................    i2c_write(LCD_ADDR); 
05CE:  MOVFF  19,5A
05D2:  RCALL  0468
....................       i2c_send_nibble(0x00,0); 
05D4:  CLRF   57
05D6:  CLRF   58
05D8:  RCALL  04B0
....................       delay_ms(15); 
05DA:  MOVLW  0F
05DC:  MOVWF  4D
05DE:  RCALL  0440
....................     
....................    for (i=1;i<=3;++i)    
05E0:  MOVLW  01
05E2:  MOVWF  42
05E4:  MOVF   42,W
05E6:  SUBLW  03
05E8:  BNC   05FC
....................    { 
....................       i2c_send_nibble(0x03,0); 
05EA:  MOVLW  03
05EC:  MOVWF  57
05EE:  CLRF   58
05F0:  RCALL  04B0
....................       delay_ms(5); 
05F2:  MOVLW  05
05F4:  MOVWF  4D
05F6:  RCALL  0440
05F8:  INCF   42,F
05FA:  BRA    05E4
....................    }    
....................       i2c_send_nibble(0x02,0); 
05FC:  MOVLW  02
05FE:  MOVWF  57
0600:  CLRF   58
0602:  RCALL  04B0
....................       delay_ms(5); 
0604:  MOVLW  05
0606:  MOVWF  4D
0608:  RCALL  0440
....................    i2c_stop(); 
060A:  BCF    F93.0
060C:  NOP   
060E:  BSF    F93.1
0610:  BTFSS  F81.1
0612:  BRA    0610
0614:  NOP   
0616:  BRA    0618
0618:  NOP   
061A:  BSF    F93.0
061C:  NOP   
....................     
....................    for (i=0;i<=3;++i) { 
061E:  CLRF   42
0620:  MOVF   42,W
0622:  SUBLW  03
0624:  BNC   063E
....................    lcd_send_byte(LCD_INIT_STRING[i],0); 
0626:  CLRF   03
0628:  MOVF   42,W
062A:  RCALL  00BA
062C:  MOVWF  43
062E:  MOVWF  54
0630:  CLRF   55
0632:  RCALL  0540
....................    delay_ms(5); 
0634:  MOVLW  05
0636:  MOVWF  4D
0638:  RCALL  0440
063A:  INCF   42,F
063C:  BRA    0620
....................    } 
....................    lcd_clear();  //Clear Display 
063E:  RCALL  058E
....................    enable_interrupts(GLOBAL); 
0640:  MOVLW  C0
0642:  IORWF  FF2,F
0644:  GOTO   0C30 (RETURN)
.................... } 
.................... 
.................... void lcd_gotoxy( byte x, byte y) 
.................... { 
.................... byte row,column,row_addr,lcd_address; 
.................... static char data; 
.................... 
....................    if (y>lcd_total_rows) row=lcd_total_rows; else row=y; 
0648:  MOVF   4E,W
064A:  SUBWF  1A,W
064C:  BC    0654
064E:  MOVFF  1A,4F
0652:  BRA    0658
0654:  MOVFF  4E,4F
....................   
....................    switch(row) 
0658:  MOVF   4F,W
065A:  XORLW  01
065C:  BZ    066C
065E:  XORLW  03
0660:  BZ    0670
0662:  XORLW  01
0664:  BZ    0676
0666:  XORLW  07
0668:  BZ    067C
066A:  BRA    0682
....................    { 
....................       case 1:  row_addr=addr_row_one;     break; 
066C:  CLRF   51
066E:  BRA    0684
....................       case 2:  row_addr=addr_row_two;     break; 
0670:  MOVLW  40
0672:  MOVWF  51
0674:  BRA    0684
....................       case 3:  row_addr=addr_row_three;   break; 
0676:  MOVLW  14
0678:  MOVWF  51
067A:  BRA    0684
....................       case 4:  row_addr=addr_row_four;    break; 
067C:  MOVLW  54
067E:  MOVWF  51
0680:  BRA    0684
....................       default: row_addr=addr_row_one;     break;  
0682:  CLRF   51
....................    }  
....................     
....................    if (x>lcd_total_columns) column=lcd_total_columns; else column=x;  
0684:  MOVF   4D,W
0686:  SUBWF  1B,W
0688:  BC    0690
068A:  MOVFF  1B,50
068E:  BRA    0694
0690:  MOVFF  4D,50
....................    lcd_address=(row_addr+(column-1)); 
0694:  MOVLW  01
0696:  SUBWF  50,W
0698:  ADDWF  51,W
069A:  MOVWF  52
....................    lcd_send_byte(0x80|lcd_address,0); 
069C:  MOVF   52,W
069E:  IORLW  80
06A0:  MOVWF  53
06A2:  MOVWF  54
06A4:  CLRF   55
06A6:  RCALL  0540
06A8:  RETURN 0
.................... } 
.................... 
.................... //Display the character on LCD screen. 
.................... void LCD_PUTC(char in_data) 
.................... {    
....................   switch(in_data) 
06AA:  MOVF   4C,W
06AC:  XORLW  0C
06AE:  BZ    06BA
06B0:  XORLW  06
06B2:  BZ    06BE
06B4:  XORLW  02
06B6:  BZ    06D6
06B8:  BRA    06E0
....................    {  
....................      case '\f': lcd_clear();                       break;                
06BA:  RCALL  058E
06BC:  BRA    06EA
....................       
....................      case '\n': 
....................      new_row_request++; 
06BE:  INCF   1C,F
....................      if (new_row_request>lcd_total_rows) new_row_request=1; 
06C0:  MOVF   1C,W
06C2:  SUBWF  1A,W
06C4:  BC    06CA
06C6:  MOVLW  01
06C8:  MOVWF  1C
....................      lcd_gotoxy(1, new_row_request); 
06CA:  MOVLW  01
06CC:  MOVWF  4D
06CE:  MOVFF  1C,4E
06D2:  RCALL  0648
....................      break; 
06D4:  BRA    06EA
....................                   
....................      case '\b': lcd_send_byte(0x10,0);             break; 
06D6:  MOVLW  10
06D8:  MOVWF  54
06DA:  CLRF   55
06DC:  RCALL  0540
06DE:  BRA    06EA
....................         
....................      default: lcd_send_byte(in_data,1);            break;      
06E0:  MOVFF  4C,54
06E4:  MOVLW  01
06E6:  MOVWF  55
06E8:  RCALL  0540
....................       
....................    } 
06EA:  RETURN 0
.................... } 
.................... 
.................... #fuses intrc,nowdt
.................... #use delay(clock=4Mhz)
*
070C:  CLRF   FEA
070E:  MOVLW  40
0710:  MOVWF  FE9
0712:  MOVF   FEF,W
0714:  BZ    0732
0716:  MOVLW  01
0718:  MOVWF  01
071A:  CLRF   00
071C:  DECFSZ 00,F
071E:  BRA    071C
0720:  DECFSZ 01,F
0722:  BRA    071A
0724:  MOVLW  4A
0726:  MOVWF  00
0728:  DECFSZ 00,F
072A:  BRA    0728
072C:  BRA    072E
072E:  DECFSZ FEF,F
0730:  BRA    0716
0732:  RETURN 0
.................... //#include <lcd.c>
.................... #use fast_io(a)
.................... float Lecturaad620;
.................... int32 valor_recarga = 63899;
.................... //int32 valor_recarga = 0;
.................... int direccionI2C = 0x4E;
.................... int filas = 2;
.................... int columnas = 16;
.................... int pulsos_555 =  0;
.................... int1 bandera_prueba_555;
.................... int1 bandera_estado_555;
.................... int32 value;
.................... int opambuenos = 0;
.................... 
.................... #INT_EXT2
.................... void pulsos() {
....................    pulsos_555 = pulsos_555 + 1;
*
00CE:  MOVLW  01
00D0:  ADDWF  2A,F
....................    CLEAR_INTERRUPT(INT_EXT2);
00D2:  BCF    FF0.1
.................... }
.................... 
00D4:  BCF    FF0.1
00D6:  GOTO   006C
.................... #INT_RTCC 
.................... void tiempo_final_555() {
....................    DISABLE_INTERRUPTS(INT_EXT2);// Inhabilitar las interrupciones del timer0
00DA:  BCF    FF0.4
....................    DISABLE_INTERRUPTS(INT_RTCC);
00DC:  BCF    FF2.5
....................    bandera_prueba_555 = 0;
00DE:  BCF    2B.0
....................    if (pulsos_555 > 9) {
00E0:  MOVF   2A,W
00E2:  SUBLW  09
00E4:  BC    00EA
....................       bandera_estado_555 = 1;
00E6:  BSF    2B.1
....................    }
00E8:  BRA    00EC
....................    
....................    else {
....................       bandera_estado_555 = 0;
00EA:  BCF    2B.1
....................    }
....................    
....................    CLEAR_INTERRUPT(INT_RTCC);
00EC:  BCF    FF2.2
00EE:  BCF    FF2.2
00F0:  GOTO   006C
.................... }
.................... 
.................... int Boton(){
....................          if(input(PIN_A3)) {
*
0734:  BTFSS  F80.3
0736:  BRA    0740
....................             return 1;
0738:  MOVLW  01
073A:  MOVWF  01
073C:  BRA    0768
....................             } else if(input(PIN_A4)) {
073E:  BRA    0764
0740:  BTFSS  F80.4
0742:  BRA    074C
....................             return 2;
0744:  MOVLW  02
0746:  MOVWF  01
0748:  BRA    0768
....................             } else if(input(PIN_A5 )) {
074A:  BRA    0764
074C:  BTFSS  F80.5
074E:  BRA    0758
....................             return 3;
0750:  MOVLW  03
0752:  MOVWF  01
0754:  BRA    0768
....................             } else if (input(PIN_C0)){
0756:  BRA    0764
0758:  BSF    F94.0
075A:  BTFSS  F82.0
075C:  BRA    0764
....................             return 4;
075E:  MOVLW  04
0760:  MOVWF  01
0762:  BRA    0768
....................             }
....................             return 0;
0764:  MOVLW  00
0766:  MOVWF  01
0768:  RETURN 0
....................          }
.................... void main(){
*
0BCC:  CLRF   FF8
0BCE:  BCF    FD0.7
0BD0:  BSF    07.7
0BD2:  MOVLW  01
0BD4:  MOVWF  1C
0BD6:  MOVLW  08
0BD8:  MOVWF  1D
0BDA:  CLRF   26
0BDC:  CLRF   25
0BDE:  MOVLW  F9
0BE0:  MOVWF  24
0BE2:  MOVLW  9B
0BE4:  MOVWF  23
0BE6:  MOVLW  4E
0BE8:  MOVWF  27
0BEA:  MOVLW  02
0BEC:  MOVWF  28
0BEE:  MOVLW  10
0BF0:  MOVWF  29
0BF2:  CLRF   2A
0BF4:  CLRF   30
0BF6:  CLRF   32
0BF8:  CLRF   31
0BFA:  MOVF   FC1,W
0BFC:  ANDLW  C0
0BFE:  IORLW  0F
0C00:  MOVWF  FC1
0C02:  MOVLW  07
0C04:  MOVWF  FB4
0C06:  CLRF   1E
....................       setup_oscillator(OSC_4MHZ);
0C08:  MOVLW  60
0C0A:  MOVWF  FD3
0C0C:  MOVF   FD3,W
....................       set_tris_a(0xff);// puerto a entrada
0C0E:  MOVLW  FF
0C10:  MOVWF  F92
....................       set_tris_d(0x00);// puerto d salida
0C12:  MOVLW  00
0C14:  MOVWF  F95
....................       SETUP_COUNTERS(RTCC_INTERNAL,RTCC_DIV_256);
0C16:  BCF    FD1.0
0C18:  MOVLW  87
0C1A:  MOVWF  FD5
....................       ENABLE_INTERRUPTS(GLOBAL);// Habilita las interrupciones globales
0C1C:  MOVLW  C0
0C1E:  IORWF  FF2,F
....................       ext_int_edge(H_TO_L); //Inicia el flanco de la interruccion de alto abajo
0C20:  BCF    FF1.6
....................       lcd_init(direccionI2C,filas,columnas);
0C22:  MOVFF  27,3F
0C26:  MOVFF  28,40
0C2A:  MOVFF  29,41
0C2E:  BRA    05A2
....................       setup_adc_ports(0x0e);
0C30:  MOVF   FC1,W
0C32:  ANDLW  C0
0C34:  IORLW  0E
0C36:  MOVWF  FC1
....................       setup_adc(adc_clock_internal);
0C38:  MOVF   FC0,W
0C3A:  ANDLW  C0
0C3C:  IORLW  07
0C3E:  MOVWF  FC0
0C40:  BSF    FC0.7
0C42:  BSF    FC2.0
....................             /**
....................       printf(lcd_putc,"\f");
....................       lcd_gotoxy(5,1);
....................       printf(lcd_putc," UNEXPO");
....................       lcd_gotoxy(2,2);
....................       printf(lcd_putc," BARQUISIMETO");
....................       delay_ms(3000);
....................       printf(lcd_putc,"\f");
....................       lcd_gotoxy(0,1);
....................       printf(lcd_putc," Daniela Canas");
....................       lcd_gotoxy(0,2);
....................       printf(lcd_putc," [Developer]");
....................       delay_ms(1000);
....................       printf(lcd_putc,"\f");
....................       lcd_gotoxy(0,1);
....................       printf(lcd_putc," Gabriel Gimenez");
....................       lcd_gotoxy(0,2);
....................       printf(lcd_putc," [Developer]");
....................       delay_ms(1000);
....................       printf(lcd_putc,"\f");
....................       lcd_gotoxy(0,1);
....................       printf(lcd_putc," Carlos Guedez");
....................       lcd_gotoxy(0,2);
....................       printf(lcd_putc," [Developer]");
....................       delay_ms(1000);
....................       printf(lcd_putc,"\f");
....................       lcd_gotoxy(0,1);
....................       printf(lcd_putc," Carlos Zambrano");
....................       lcd_gotoxy(0,2);
....................       printf(lcd_putc," [Tutor]");
....................       delay_ms(1000);
....................       **/
....................       
.................... MENUPRINCIPAL:
....................       while(true){
....................           printf(lcd_putc,"\f");
0C44:  MOVLW  0C
0C46:  MOVWF  4C
0C48:  MOVLB  0
0C4A:  RCALL  06AA
....................           lcd_gotoxy(0,1);
0C4C:  CLRF   4D
0C4E:  MOVLW  01
0C50:  MOVWF  4E
0C52:  RCALL  0648
....................           printf(lcd_putc," MENU PRINCIPAL");
0C54:  MOVLW  F4
0C56:  MOVWF  FF6
0C58:  MOVLW  00
0C5A:  MOVWF  FF7
0C5C:  RCALL  06EC
....................           lcd_gotoxy(0,2);
0C5E:  CLRF   4D
0C60:  MOVLW  02
0C62:  MOVWF  4E
0C64:  RCALL  0648
....................           printf(lcd_putc," 1>AD620 3>NEXT");
0C66:  MOVLW  04
0C68:  MOVWF  FF6
0C6A:  MOVLW  01
0C6C:  MOVWF  FF7
0C6E:  RCALL  06EC
....................           delay_ms(1000);
0C70:  MOVLW  04
0C72:  MOVWF  3F
0C74:  MOVLW  FA
0C76:  MOVWF  40
0C78:  RCALL  070C
0C7A:  DECFSZ 3F,F
0C7C:  BRA    0C74
....................           while(1){
....................              if(Boton()==1){
0C7E:  RCALL  0734
0C80:  DECFSZ 01,W
0C82:  BRA    0DB4
....................                while(1){
....................                   set_adc_channel(0);
0C84:  MOVLW  00
0C86:  MOVWF  01
0C88:  MOVF   FC2,W
0C8A:  ANDLW  C3
0C8C:  IORWF  01,W
0C8E:  MOVWF  FC2
....................                   delay_us(20);
0C90:  MOVLW  06
0C92:  MOVWF  00
0C94:  DECFSZ 00,F
0C96:  BRA    0C94
0C98:  NOP   
....................                   float valor_adc = read_adc();
....................                   float lectura= valor_adc*0.004886; 
....................                   float Lecturaad620=lectura;
0C9A:  BSF    FC2.1
0C9C:  BTFSC  FC2.1
0C9E:  BRA    0C9C
0CA0:  MOVFF  FC4,02
0CA4:  MOVFF  FC3,01
0CA8:  MOVFF  FC4,03
0CAC:  MOVFF  FC3,3F
0CB0:  MOVFF  FC4,40
0CB4:  BRA    076A
0CB6:  MOVFF  03,36
0CBA:  MOVFF  02,35
0CBE:  MOVFF  01,34
0CC2:  MOVFF  00,33
0CC6:  MOVFF  36,4F
0CCA:  MOVFF  35,4E
0CCE:  MOVFF  34,4D
0CD2:  MOVFF  33,4C
0CD6:  MOVLW  BD
0CD8:  MOVWF  53
0CDA:  MOVLW  1A
0CDC:  MOVWF  52
0CDE:  MOVLW  20
0CE0:  MOVWF  51
0CE2:  MOVLW  77
0CE4:  MOVWF  50
0CE6:  RCALL  07A2
0CE8:  MOVFF  03,3A
0CEC:  MOVFF  02,39
0CF0:  MOVFF  01,38
0CF4:  MOVFF  00,37
0CF8:  MOVFF  3A,3E
0CFC:  MOVFF  39,3D
0D00:  MOVFF  38,3C
0D04:  MOVFF  37,3B
....................                   output_high(PIN_B0); // Colocar en alto pin B0 
0D08:  BCF    F93.0
0D0A:  BSF    F8A.0
....................                    //output_high(PIN_B1);
....................                   printf(lcd_putc,"\f"); //Limpiar la pantalla
0D0C:  MOVLW  0C
0D0E:  MOVWF  4C
0D10:  RCALL  06AA
....................                   lcd_gotoxy(0,1);
0D12:  CLRF   4D
0D14:  MOVLW  01
0D16:  MOVWF  4E
0D18:  RCALL  0648
....................                   printf(lcd_putc," AD620 Testing..."); //  escribir eso
0D1A:  MOVLW  14
0D1C:  MOVWF  FF6
0D1E:  MOVLW  01
0D20:  MOVWF  FF7
0D22:  RCALL  06EC
....................                   lcd_gotoxy(0,2);
0D24:  CLRF   4D
0D26:  MOVLW  02
0D28:  MOVWF  4E
0D2A:  RCALL  0648
....................                   //printf(lcd_putc,"\f");
....................                   printf(lcd_putc," V:%0.2f. 2>Ret",Lecturaad620);
0D2C:  MOVLW  26
0D2E:  MOVWF  FF6
0D30:  MOVLW  01
0D32:  MOVWF  FF7
0D34:  MOVLW  03
0D36:  MOVWF  3F
0D38:  RCALL  0894
0D3A:  MOVLW  C9
0D3C:  MOVWF  FE9
0D3E:  MOVFF  3E,42
0D42:  MOVFF  3D,41
0D46:  MOVFF  3C,40
0D4A:  MOVFF  3B,3F
0D4E:  MOVLW  02
0D50:  MOVWF  43
0D52:  BRA    0980
0D54:  MOVLW  2E
0D56:  MOVWF  FF6
0D58:  MOVLW  01
0D5A:  MOVWF  FF7
0D5C:  MOVLW  07
0D5E:  MOVWF  3F
0D60:  RCALL  0894
....................                   delay_ms(500);
0D62:  MOVLW  02
0D64:  MOVWF  3F
0D66:  MOVLW  FA
0D68:  MOVWF  40
0D6A:  RCALL  070C
0D6C:  DECFSZ 3F,F
0D6E:  BRA    0D66
....................                   /**
....................                   if(ad620Bueno==1){
....................                        lcd_gotoxy(0,2);
....................                        printf(lcd_putc," 1>Buenardo 3>return");
....................                        delay_ms(3000);
....................                        }
....................                    else {
....................                        lcd_gotoxy(0,2);
....................                        printf(lcd_putc," 1>Dañao 3>return");
....................                        delay_ms(3000);
....................                        }
....................                    **/
....................                   if(Boton()==2){
0D70:  RCALL  0734
0D72:  MOVF   01,W
0D74:  SUBLW  02
0D76:  BNZ   0DB2
....................                      printf(lcd_putc,"\f");
0D78:  MOVLW  0C
0D7A:  MOVWF  4C
0D7C:  RCALL  06AA
....................                      lcd_gotoxy(0,1);
0D7E:  CLRF   4D
0D80:  MOVLW  01
0D82:  MOVWF  4E
0D84:  RCALL  0648
....................                      printf(lcd_putc," MENU PRINCIPAL");
0D86:  MOVLW  36
0D88:  MOVWF  FF6
0D8A:  MOVLW  01
0D8C:  MOVWF  FF7
0D8E:  RCALL  06EC
....................                      lcd_gotoxy(0,2);
0D90:  CLRF   4D
0D92:  MOVLW  02
0D94:  MOVWF  4E
0D96:  RCALL  0648
....................                      printf(lcd_putc," 1>AD620 3>NEXT");
0D98:  MOVLW  46
0D9A:  MOVWF  FF6
0D9C:  MOVLW  01
0D9E:  MOVWF  FF7
0DA0:  RCALL  06EC
....................                      delay_ms(1000);
0DA2:  MOVLW  04
0DA4:  MOVWF  3F
0DA6:  MOVLW  FA
0DA8:  MOVWF  40
0DAA:  RCALL  070C
0DAC:  DECFSZ 3F,F
0DAE:  BRA    0DA6
....................                      break;
0DB0:  BRA    0DB4
....................                   }
0DB2:  BRA    0C84
....................                 }     
....................              }
....................              if(Boton()==3){
0DB4:  RCALL  0734
0DB6:  MOVF   01,W
0DB8:  SUBLW  03
0DBA:  BTFSS  FD8.2
0DBC:  BRA    14C4
....................                printf(lcd_putc,"\f");
0DBE:  MOVLW  0C
0DC0:  MOVWF  4C
0DC2:  RCALL  06AA
....................                lcd_gotoxy(0,1);
0DC4:  CLRF   4D
0DC6:  MOVLW  01
0DC8:  MOVWF  4E
0DCA:  RCALL  0648
....................                printf(lcd_putc," 1>555 2>LM224");
0DCC:  MOVLW  56
0DCE:  MOVWF  FF6
0DD0:  MOVLW  01
0DD2:  MOVWF  FF7
0DD4:  RCALL  06EC
....................                lcd_gotoxy(0,2);
0DD6:  CLRF   4D
0DD8:  MOVLW  02
0DDA:  MOVWF  4E
0DDC:  RCALL  0648
....................                printf(lcd_putc," 4>741 3>Pag.Sig.");
0DDE:  MOVLW  66
0DE0:  MOVWF  FF6
0DE2:  MOVLW  01
0DE4:  MOVWF  FF7
0DE6:  RCALL  06EC
....................                delay_ms(1000);
0DE8:  MOVLW  04
0DEA:  MOVWF  3F
0DEC:  MOVLW  FA
0DEE:  MOVWF  40
0DF0:  RCALL  070C
0DF2:  DECFSZ 3F,F
0DF4:  BRA    0DEC
....................                while(1){
....................                   if(Boton()==1){
0DF6:  RCALL  0734
0DF8:  DECFSZ 01,W
0DFA:  BRA    0FEE
....................                         bandera_prueba_555 = 1;
0DFC:  BSF    2B.0
....................                         SET_TIMER0(valor_recarga);
0DFE:  MOVFF  24,FD7
0E02:  MOVFF  23,FD6
0E06:  NOP   
....................                         value=get_timer0();
0E08:  MOVF   FD6,W
0E0A:  MOVWF  2C
0E0C:  MOVFF  FD7,2D
0E10:  CLRF   2E
0E12:  CLRF   2F
....................                         ENABLE_INTERRUPTS(INT_RTCC);
0E14:  BSF    FF2.5
....................                         ENABLE_INTERRUPTS(INT_EXT2);// Habilita las interrupciones externas
0E16:  BSF    FF0.4
....................                         printf(lcd_putc,"\f"); //Limpiar la pantalla
0E18:  MOVLW  0C
0E1A:  MOVWF  4C
0E1C:  RCALL  06AA
....................                         lcd_gotoxy(0,1);
0E1E:  CLRF   4D
0E20:  MOVLW  01
0E22:  MOVWF  4E
0E24:  RCALL  0648
....................                         printf(lcd_putc," 555 Testing..."); //  escribir eso
0E26:  MOVLW  78
0E28:  MOVWF  FF6
0E2A:  MOVLW  01
0E2C:  MOVWF  FF7
0E2E:  RCALL  06EC
....................                         lcd_gotoxy(0,2);
0E30:  CLRF   4D
0E32:  MOVLW  02
0E34:  MOVWF  4E
0E36:  RCALL  0648
....................                         printf(lcd_putc," 2>Volver");
0E38:  MOVLW  88
0E3A:  MOVWF  FF6
0E3C:  MOVLW  01
0E3E:  MOVWF  FF7
0E40:  RCALL  06EC
....................                             
....................                         while(bandera_prueba_555 == 1) {
0E42:  BTFSS  2B.0
0E44:  BRA    0E80
....................                            if (Boton() == 2) {                        
0E46:  RCALL  0734
0E48:  MOVF   01,W
0E4A:  SUBLW  02
0E4C:  BNZ   0E7E
....................                               printf(lcd_putc,"\f");
0E4E:  MOVLW  0C
0E50:  MOVWF  4C
0E52:  RCALL  06AA
....................                               lcd_gotoxy(0,1);
0E54:  CLRF   4D
0E56:  MOVLW  01
0E58:  MOVWF  4E
0E5A:  CALL   0648
....................                               printf(lcd_putc," 1>555 2>LM224");
0E5E:  MOVLW  92
0E60:  MOVWF  FF6
0E62:  MOVLW  01
0E64:  MOVWF  FF7
0E66:  RCALL  06EC
....................                               lcd_gotoxy(0,2);
0E68:  CLRF   4D
0E6A:  MOVLW  02
0E6C:  MOVWF  4E
0E6E:  CALL   0648
....................                               printf(lcd_putc," 4>741 3>Pag.Sig.");
0E72:  MOVLW  A2
0E74:  MOVWF  FF6
0E76:  MOVLW  01
0E78:  MOVWF  FF7
0E7A:  RCALL  06EC
....................                               break;
0E7C:  BRA    0E80
....................                            }
0E7E:  BRA    0E42
....................                         }
....................                         
....................                         if (bandera_prueba_555 == 0) {
0E80:  BTFSC  2B.0
0E82:  BRA    0F88
....................                            if (bandera_estado_555 == 0) {
0E84:  BTFSC  2B.1
0E86:  BRA    0F02
....................                               printf(lcd_putc,"\f"); //Limpiar la pantalla
0E88:  MOVLW  0C
0E8A:  MOVWF  4C
0E8C:  RCALL  06AA
....................                               lcd_gotoxy(0,1);
0E8E:  CLRF   4D
0E90:  MOVLW  01
0E92:  MOVWF  4E
0E94:  CALL   0648
....................                               printf(lcd_putc,"Malo %i", pulsos_555); //  escribir eso
0E98:  MOVLW  B4
0E9A:  MOVWF  FF6
0E9C:  MOVLW  01
0E9E:  MOVWF  FF7
0EA0:  MOVLW  05
0EA2:  MOVWF  3F
0EA4:  RCALL  0894
0EA6:  MOVFF  2A,3F
0EAA:  MOVLW  18
0EAC:  MOVWF  40
0EAE:  RCALL  0B22
....................                               lcd_gotoxy(0,2);
0EB0:  CLRF   4D
0EB2:  MOVLW  02
0EB4:  MOVWF  4E
0EB6:  CALL   0648
....................                               printf(lcd_putc," 2>Volver");
0EBA:  MOVLW  BC
0EBC:  MOVWF  FF6
0EBE:  MOVLW  01
0EC0:  MOVWF  FF7
0EC2:  RCALL  06EC
....................                               while(1) {
....................                                  if(Boton() == 2) {
0EC4:  RCALL  0734
0EC6:  MOVF   01,W
0EC8:  SUBLW  02
0ECA:  BNZ   0F00
....................                                     printf(lcd_putc,"\f");
0ECC:  MOVLW  0C
0ECE:  MOVWF  4C
0ED0:  CALL   06AA
....................                                     lcd_gotoxy(0,1);
0ED4:  CLRF   4D
0ED6:  MOVLW  01
0ED8:  MOVWF  4E
0EDA:  CALL   0648
....................                                     printf(lcd_putc," 1>555 2>LM224");
0EDE:  MOVLW  C6
0EE0:  MOVWF  FF6
0EE2:  MOVLW  01
0EE4:  MOVWF  FF7
0EE6:  RCALL  06EC
....................                                     lcd_gotoxy(0,2);
0EE8:  CLRF   4D
0EEA:  MOVLW  02
0EEC:  MOVWF  4E
0EEE:  CALL   0648
....................                                     printf(lcd_putc," 4>741 3>Pag.Sig.");
0EF2:  MOVLW  D6
0EF4:  MOVWF  FF6
0EF6:  MOVLW  01
0EF8:  MOVWF  FF7
0EFA:  CALL   06EC
....................                                     break;
0EFE:  BRA    0F02
....................                                  }
0F00:  BRA    0EC4
....................                               }
....................                            }
....................                            
....................                            if (bandera_estado_555 == 1) {
0F02:  BTFSS  2B.1
0F04:  BRA    0F88
....................                               printf(lcd_putc,"\f"); //Limpiar la pantalla
0F06:  MOVLW  0C
0F08:  MOVWF  4C
0F0A:  CALL   06AA
....................                               lcd_gotoxy(0,1);
0F0E:  CLRF   4D
0F10:  MOVLW  01
0F12:  MOVWF  4E
0F14:  CALL   0648
....................                               printf(lcd_putc,"Bueno %i", pulsos_555); //  escribir eso
0F18:  MOVLW  E8
0F1A:  MOVWF  FF6
0F1C:  MOVLW  01
0F1E:  MOVWF  FF7
0F20:  MOVLW  06
0F22:  MOVWF  3F
0F24:  RCALL  0894
0F26:  MOVFF  2A,3F
0F2A:  MOVLW  18
0F2C:  MOVWF  40
0F2E:  RCALL  0B22
....................                               lcd_gotoxy(0,2);
0F30:  CLRF   4D
0F32:  MOVLW  02
0F34:  MOVWF  4E
0F36:  CALL   0648
....................                               printf(lcd_putc," 2>Volver");
0F3A:  MOVLW  F2
0F3C:  MOVWF  FF6
0F3E:  MOVLW  01
0F40:  MOVWF  FF7
0F42:  CALL   06EC
....................                               while(1) {
....................                                  if(Boton() == 2) {
0F46:  CALL   0734
0F4A:  MOVF   01,W
0F4C:  SUBLW  02
0F4E:  BNZ   0F86
....................                                     printf(lcd_putc,"\f");
0F50:  MOVLW  0C
0F52:  MOVWF  4C
0F54:  CALL   06AA
....................                                     lcd_gotoxy(0,1);
0F58:  CLRF   4D
0F5A:  MOVLW  01
0F5C:  MOVWF  4E
0F5E:  CALL   0648
....................                                     printf(lcd_putc," 1>555 2>LM224");
0F62:  MOVLW  FC
0F64:  MOVWF  FF6
0F66:  MOVLW  01
0F68:  MOVWF  FF7
0F6A:  CALL   06EC
....................                                     lcd_gotoxy(0,2);
0F6E:  CLRF   4D
0F70:  MOVLW  02
0F72:  MOVWF  4E
0F74:  CALL   0648
....................                                     printf(lcd_putc," 4>741 3>Pag.Sig.");
0F78:  MOVLW  0C
0F7A:  MOVWF  FF6
0F7C:  MOVLW  02
0F7E:  MOVWF  FF7
0F80:  CALL   06EC
....................                                     break;
0F84:  BRA    0F88
....................                                  }
0F86:  BRA    0F46
....................                               }
....................                            }
....................                         }
....................                         bandera_prueba_555 = 0;
0F88:  BCF    2B.0
....................                         pulsos_555 = 0;
0F8A:  CLRF   2A
....................                         printf(lcd_putc,"\f"); //Limpiar la pantalla
0F8C:  MOVLW  0C
0F8E:  MOVWF  4C
0F90:  CALL   06AA
....................                         lcd_gotoxy(0,2);
0F94:  CLRF   4D
0F96:  MOVLW  02
0F98:  MOVWF  4E
0F9A:  CALL   0648
....................                         printf(lcd_putc," Regresando...");
0F9E:  MOVLW  1E
0FA0:  MOVWF  FF6
0FA2:  MOVLW  02
0FA4:  MOVWF  FF7
0FA6:  CALL   06EC
....................                         printf(lcd_putc,"\f");
0FAA:  MOVLW  0C
0FAC:  MOVWF  4C
0FAE:  CALL   06AA
....................                         lcd_gotoxy(0,1);
0FB2:  CLRF   4D
0FB4:  MOVLW  01
0FB6:  MOVWF  4E
0FB8:  CALL   0648
....................                         printf(lcd_putc," 1>555 2>LM224");
0FBC:  MOVLW  2E
0FBE:  MOVWF  FF6
0FC0:  MOVLW  02
0FC2:  MOVWF  FF7
0FC4:  CALL   06EC
....................                         lcd_gotoxy(0,2);
0FC8:  CLRF   4D
0FCA:  MOVLW  02
0FCC:  MOVWF  4E
0FCE:  CALL   0648
....................                         printf(lcd_putc," 4>741 3>Pag.Sig.");
0FD2:  MOVLW  3E
0FD4:  MOVWF  FF6
0FD6:  MOVLW  02
0FD8:  MOVWF  FF7
0FDA:  CALL   06EC
....................                         delay_ms(1000);
0FDE:  MOVLW  04
0FE0:  MOVWF  3F
0FE2:  MOVLW  FA
0FE4:  MOVWF  40
0FE6:  CALL   070C
0FEA:  DECFSZ 3F,F
0FEC:  BRA    0FE2
....................                      }
....................                 
....................                   if(Boton()==2){
0FEE:  CALL   0734
0FF2:  MOVF   01,W
0FF4:  SUBLW  02
0FF6:  BTFSS  FD8.2
0FF8:  BRA    1284
....................                         while(1){
....................                             output_high(PIN_B7); // Colocar en alto pin B7 
0FFA:  BCF    F93.7
0FFC:  BSF    F8A.7
....................                             printf(lcd_putc,"\f"); //Limpiar la pantalla
0FFE:  MOVLW  0C
1000:  MOVWF  4C
1002:  CALL   06AA
....................                             lcd_gotoxy(0,1);
1006:  CLRF   4D
1008:  MOVLW  01
100A:  MOVWF  4E
100C:  CALL   0648
....................                             printf(lcd_putc," LM224 Testing..."); //  escribir eso
1010:  MOVLW  50
1012:  MOVWF  FF6
1014:  MOVLW  02
1016:  MOVWF  FF7
1018:  CALL   06EC
....................                             lcd_gotoxy(0,2);
101C:  CLRF   4D
101E:  MOVLW  02
1020:  MOVWF  4E
1022:  CALL   0648
....................                             printf(lcd_putc," 2>Volver");
1026:  MOVLW  62
1028:  MOVWF  FF6
102A:  MOVLW  02
102C:  MOVWF  FF7
102E:  CALL   06EC
....................                             delay_ms(1000);
1032:  MOVLW  04
1034:  MOVWF  3F
1036:  MOVLW  FA
1038:  MOVWF  40
103A:  CALL   070C
103E:  DECFSZ 3F,F
1040:  BRA    1036
....................                             if(input(PIN_C0)==1){
1042:  BSF    F94.0
1044:  BTFSS  F82.0
1046:  BRA    1090
....................                                  printf(lcd_putc,"\f");
1048:  MOVLW  0C
104A:  MOVWF  4C
104C:  CALL   06AA
....................                                  lcd_gotoxy(0,1);
1050:  CLRF   4D
1052:  MOVLW  01
1054:  MOVWF  4E
1056:  CALL   0648
....................                                  printf(lcd_putc," AmpOp-1 Bueno!"); //  escribir eso
105A:  MOVLW  6C
105C:  MOVWF  FF6
105E:  MOVLW  02
1060:  MOVWF  FF7
1062:  CALL   06EC
....................                                  lcd_gotoxy(0,2);
1066:  CLRF   4D
1068:  MOVLW  02
106A:  MOVWF  4E
106C:  CALL   0648
....................                                  printf(lcd_putc," LM224 Testing...");
1070:  MOVLW  7C
1072:  MOVWF  FF6
1074:  MOVLW  02
1076:  MOVWF  FF7
1078:  CALL   06EC
....................                                  delay_ms(500);
107C:  MOVLW  02
107E:  MOVWF  3F
1080:  MOVLW  FA
1082:  MOVWF  40
1084:  CALL   070C
1088:  DECFSZ 3F,F
108A:  BRA    1080
....................                                  opambuenos = opambuenos + 1;
108C:  MOVLW  01
108E:  ADDWF  30,F
....................                             }
....................                             if(input(PIN_C1)==1){
1090:  BSF    F94.1
1092:  BTFSS  F82.1
1094:  BRA    10DE
....................                                  printf(lcd_putc,"\f");
1096:  MOVLW  0C
1098:  MOVWF  4C
109A:  CALL   06AA
....................                                  lcd_gotoxy(0,1);
109E:  CLRF   4D
10A0:  MOVLW  01
10A2:  MOVWF  4E
10A4:  CALL   0648
....................                                  printf(lcd_putc," AmpOp-2 Bueno!"); //  escribir eso
10A8:  MOVLW  8E
10AA:  MOVWF  FF6
10AC:  MOVLW  02
10AE:  MOVWF  FF7
10B0:  CALL   06EC
....................                                  lcd_gotoxy(0,2);
10B4:  CLRF   4D
10B6:  MOVLW  02
10B8:  MOVWF  4E
10BA:  CALL   0648
....................                                  printf(lcd_putc," LM224 Testing...");
10BE:  MOVLW  9E
10C0:  MOVWF  FF6
10C2:  MOVLW  02
10C4:  MOVWF  FF7
10C6:  CALL   06EC
....................                                  delay_ms(500);
10CA:  MOVLW  02
10CC:  MOVWF  3F
10CE:  MOVLW  FA
10D0:  MOVWF  40
10D2:  CALL   070C
10D6:  DECFSZ 3F,F
10D8:  BRA    10CE
....................                                  opambuenos = opambuenos + 1;
10DA:  MOVLW  01
10DC:  ADDWF  30,F
....................                             }
....................                             if(input(PIN_C2)==1){
10DE:  BSF    F94.2
10E0:  BTFSS  F82.2
10E2:  BRA    112C
....................                                  printf(lcd_putc,"\f");
10E4:  MOVLW  0C
10E6:  MOVWF  4C
10E8:  CALL   06AA
....................                                  lcd_gotoxy(0,1);
10EC:  CLRF   4D
10EE:  MOVLW  01
10F0:  MOVWF  4E
10F2:  CALL   0648
....................                                  printf(lcd_putc," AmpOp-3 Bueno!"); //  escribir eso
10F6:  MOVLW  B0
10F8:  MOVWF  FF6
10FA:  MOVLW  02
10FC:  MOVWF  FF7
10FE:  CALL   06EC
....................                                  lcd_gotoxy(0,2);
1102:  CLRF   4D
1104:  MOVLW  02
1106:  MOVWF  4E
1108:  CALL   0648
....................                                  printf(lcd_putc," LM224 Testing...");
110C:  MOVLW  C0
110E:  MOVWF  FF6
1110:  MOVLW  02
1112:  MOVWF  FF7
1114:  CALL   06EC
....................                                  delay_ms(500);
1118:  MOVLW  02
111A:  MOVWF  3F
111C:  MOVLW  FA
111E:  MOVWF  40
1120:  CALL   070C
1124:  DECFSZ 3F,F
1126:  BRA    111C
....................                                  opambuenos = opambuenos + 1;
1128:  MOVLW  01
112A:  ADDWF  30,F
....................                             } 
....................                             if(input(PIN_D2)==1){
112C:  BSF    F95.2
112E:  BTFSS  F83.2
1130:  BRA    117A
....................                                  printf(lcd_putc,"\f");
1132:  MOVLW  0C
1134:  MOVWF  4C
1136:  CALL   06AA
....................                                  lcd_gotoxy(0,1);
113A:  CLRF   4D
113C:  MOVLW  01
113E:  MOVWF  4E
1140:  CALL   0648
....................                                  printf(lcd_putc," AmpOp-4 Bueno!"); //  escribir eso
1144:  MOVLW  D2
1146:  MOVWF  FF6
1148:  MOVLW  02
114A:  MOVWF  FF7
114C:  CALL   06EC
....................                                  lcd_gotoxy(0,2);
1150:  CLRF   4D
1152:  MOVLW  02
1154:  MOVWF  4E
1156:  CALL   0648
....................                                  printf(lcd_putc," LM224 Testing...");
115A:  MOVLW  E2
115C:  MOVWF  FF6
115E:  MOVLW  02
1160:  MOVWF  FF7
1162:  CALL   06EC
....................                                  delay_ms(500);
1166:  MOVLW  02
1168:  MOVWF  3F
116A:  MOVLW  FA
116C:  MOVWF  40
116E:  CALL   070C
1172:  DECFSZ 3F,F
1174:  BRA    116A
....................                                  opambuenos = opambuenos + 1;
1176:  MOVLW  01
1178:  ADDWF  30,F
....................                             }   
....................                             if(opambuenos>=1){
117A:  MOVF   30,W
117C:  SUBLW  00
117E:  BC    120E
....................                                  output_low(PIN_B7); // Colocar en bajo pin B0
1180:  BCF    F93.7
1182:  BCF    F8A.7
....................                                  printf(lcd_putc,"\f"); //Limpiar la pantalla
1184:  MOVLW  0C
1186:  MOVWF  4C
1188:  CALL   06AA
....................                                  lcd_gotoxy(0,1);
118C:  CLRF   4D
118E:  MOVLW  01
1190:  MOVWF  4E
1192:  CALL   0648
....................                                  printf(lcd_putc," Buenos %i", opambuenos);
1196:  MOVLW  F4
1198:  MOVWF  FF6
119A:  MOVLW  02
119C:  MOVWF  FF7
119E:  MOVLW  08
11A0:  MOVWF  3F
11A2:  CALL   0894
11A6:  MOVFF  30,3F
11AA:  MOVLW  18
11AC:  MOVWF  40
11AE:  RCALL  0B22
....................                                  lcd_gotoxy(0,2);
11B0:  CLRF   4D
11B2:  MOVLW  02
11B4:  MOVWF  4E
11B6:  CALL   0648
....................                                  printf(lcd_putc," Regresando...");
11BA:  MOVLW  00
11BC:  MOVWF  FF6
11BE:  MOVLW  03
11C0:  MOVWF  FF7
11C2:  CALL   06EC
....................                                  delay_ms(1000);
11C6:  MOVLW  04
11C8:  MOVWF  3F
11CA:  MOVLW  FA
11CC:  MOVWF  40
11CE:  CALL   070C
11D2:  DECFSZ 3F,F
11D4:  BRA    11CA
....................                                  opambuenos = 0;
11D6:  CLRF   30
....................                                  printf(lcd_putc,"\f");
11D8:  MOVLW  0C
11DA:  MOVWF  4C
11DC:  CALL   06AA
....................                                  lcd_gotoxy(0,1);
11E0:  CLRF   4D
11E2:  MOVLW  01
11E4:  MOVWF  4E
11E6:  CALL   0648
....................                                  printf(lcd_putc," 1>555 2>LM224");
11EA:  MOVLW  10
11EC:  MOVWF  FF6
11EE:  MOVLW  03
11F0:  MOVWF  FF7
11F2:  CALL   06EC
....................                                  lcd_gotoxy(0,2);
11F6:  CLRF   4D
11F8:  MOVLW  02
11FA:  MOVWF  4E
11FC:  CALL   0648
....................                                  printf(lcd_putc," 4>741 3>Pag.Sig.");
1200:  MOVLW  20
1202:  MOVWF  FF6
1204:  MOVLW  03
1206:  MOVWF  FF7
1208:  CALL   06EC
....................                                 break;
120C:  BRA    1284
....................                             }
....................                             if(Boton()==2){
120E:  CALL   0734
1212:  MOVF   01,W
1214:  SUBLW  02
1216:  BNZ   1282
....................                              opambuenos = 0;
1218:  CLRF   30
....................                              output_low(PIN_B1); // Colocar en bajo pin B0
121A:  BCF    F93.1
121C:  BCF    F8A.1
....................                              printf(lcd_putc,"\f"); //Limpiar la pantalla
121E:  MOVLW  0C
1220:  MOVWF  4C
1222:  CALL   06AA
....................                              lcd_gotoxy(0,2);
1226:  CLRF   4D
1228:  MOVLW  02
122A:  MOVWF  4E
122C:  CALL   0648
....................                              printf(lcd_putc," Regresando...");
1230:  MOVLW  32
1232:  MOVWF  FF6
1234:  MOVLW  03
1236:  MOVWF  FF7
1238:  CALL   06EC
....................                              delay_ms(500);
123C:  MOVLW  02
123E:  MOVWF  3F
1240:  MOVLW  FA
1242:  MOVWF  40
1244:  CALL   070C
1248:  DECFSZ 3F,F
124A:  BRA    1240
....................                              printf(lcd_putc,"\f");
124C:  MOVLW  0C
124E:  MOVWF  4C
1250:  CALL   06AA
....................                               lcd_gotoxy(0,1);
1254:  CLRF   4D
1256:  MOVLW  01
1258:  MOVWF  4E
125A:  CALL   0648
....................                               printf(lcd_putc," 1>555 2>LM224");
125E:  MOVLW  42
1260:  MOVWF  FF6
1262:  MOVLW  03
1264:  MOVWF  FF7
1266:  CALL   06EC
....................                               lcd_gotoxy(0,2);
126A:  CLRF   4D
126C:  MOVLW  02
126E:  MOVWF  4E
1270:  CALL   0648
....................                               printf(lcd_putc," 4>741 3>Pag.Sig.");
1274:  MOVLW  52
1276:  MOVWF  FF6
1278:  MOVLW  03
127A:  MOVWF  FF7
127C:  CALL   06EC
....................                              break;
1280:  BRA    1284
....................                         } 
1282:  BRA    0FFA
....................                      }
....................                   }
....................                   if(Boton()==4){
1284:  CALL   0734
1288:  MOVF   01,W
128A:  SUBLW  04
128C:  BTFSS  FD8.2
128E:  BRA    13D2
....................                         while(1){
....................                         output_high(PIN_B7); // Colocar en alto pin B7
1290:  BCF    F93.7
1292:  BSF    F8A.7
....................                         printf(lcd_putc,"\f"); //Limpiar la pantalla
1294:  MOVLW  0C
1296:  MOVWF  4C
1298:  CALL   06AA
....................                         lcd_gotoxy(0,1);
129C:  CLRF   4D
129E:  MOVLW  01
12A0:  MOVWF  4E
12A2:  CALL   0648
....................                         printf(lcd_putc," 741 Testing..."); //  escribir eso
12A6:  MOVLW  64
12A8:  MOVWF  FF6
12AA:  MOVLW  03
12AC:  MOVWF  FF7
12AE:  CALL   06EC
....................                         lcd_gotoxy(0,2);
12B2:  CLRF   4D
12B4:  MOVLW  02
12B6:  MOVWF  4E
12B8:  CALL   0648
....................                         printf(lcd_putc," 2>Volver");
12BC:  MOVLW  74
12BE:  MOVWF  FF6
12C0:  MOVLW  03
12C2:  MOVWF  FF7
12C4:  CALL   06EC
....................                         delay_ms(1000);
12C8:  MOVLW  04
12CA:  MOVWF  3F
12CC:  MOVLW  FA
12CE:  MOVWF  40
12D0:  CALL   070C
12D4:  DECFSZ 3F,F
12D6:  BRA    12CC
....................                         if(input(PIN_C1)==1){
12D8:  BSF    F94.1
12DA:  BTFSS  F82.1
12DC:  BRA    135E
....................                                  printf(lcd_putc,"\f");
12DE:  MOVLW  0C
12E0:  MOVWF  4C
12E2:  CALL   06AA
....................                                  lcd_gotoxy(0,1);
12E6:  CLRF   4D
12E8:  MOVLW  01
12EA:  MOVWF  4E
12EC:  CALL   0648
....................                                  printf(lcd_putc," AmpOp Bueno!"); //  escribir eso
12F0:  MOVLW  7E
12F2:  MOVWF  FF6
12F4:  MOVLW  03
12F6:  MOVWF  FF7
12F8:  CALL   06EC
....................                                  lcd_gotoxy(0,2);
12FC:  CLRF   4D
12FE:  MOVLW  02
1300:  MOVWF  4E
1302:  CALL   0648
....................                                  printf(lcd_putc," Regresando...");
1306:  MOVLW  8C
1308:  MOVWF  FF6
130A:  MOVLW  03
130C:  MOVWF  FF7
130E:  CALL   06EC
....................                                  delay_ms(500);
1312:  MOVLW  02
1314:  MOVWF  3F
1316:  MOVLW  FA
1318:  MOVWF  40
131A:  CALL   070C
131E:  DECFSZ 3F,F
1320:  BRA    1316
....................                                  opambuenos = 0;
1322:  CLRF   30
....................                                  output_low(PIN_B7); // Colocar en bajo pin B0
1324:  BCF    F93.7
1326:  BCF    F8A.7
....................                                  printf(lcd_putc,"\f");
1328:  MOVLW  0C
132A:  MOVWF  4C
132C:  CALL   06AA
....................                                  lcd_gotoxy(0,1);
1330:  CLRF   4D
1332:  MOVLW  01
1334:  MOVWF  4E
1336:  CALL   0648
....................                                  printf(lcd_putc," 1>555 2>LM224");
133A:  MOVLW  9C
133C:  MOVWF  FF6
133E:  MOVLW  03
1340:  MOVWF  FF7
1342:  CALL   06EC
....................                                  lcd_gotoxy(0,2);
1346:  CLRF   4D
1348:  MOVLW  02
134A:  MOVWF  4E
134C:  CALL   0648
....................                                  printf(lcd_putc," 4>741 3>Pag.Sig.");
1350:  MOVLW  AC
1352:  MOVWF  FF6
1354:  MOVLW  03
1356:  MOVWF  FF7
1358:  CALL   06EC
....................                                 break;
135C:  BRA    13D2
....................                             }
....................                         if(Boton()==2){
135E:  CALL   0734
1362:  MOVF   01,W
1364:  SUBLW  02
1366:  BNZ   13D0
....................                              output_low(PIN_B7); // Colocar en bajo pin B0
1368:  BCF    F93.7
136A:  BCF    F8A.7
....................                              printf(lcd_putc,"\f"); //Limpiar la pantalla
136C:  MOVLW  0C
136E:  MOVWF  4C
1370:  CALL   06AA
....................                              lcd_gotoxy(0,2);
1374:  CLRF   4D
1376:  MOVLW  02
1378:  MOVWF  4E
137A:  CALL   0648
....................                              printf(lcd_putc," Regresando...");
137E:  MOVLW  BE
1380:  MOVWF  FF6
1382:  MOVLW  03
1384:  MOVWF  FF7
1386:  CALL   06EC
....................                              delay_ms(500);
138A:  MOVLW  02
138C:  MOVWF  3F
138E:  MOVLW  FA
1390:  MOVWF  40
1392:  CALL   070C
1396:  DECFSZ 3F,F
1398:  BRA    138E
....................                              printf(lcd_putc,"\f");
139A:  MOVLW  0C
139C:  MOVWF  4C
139E:  CALL   06AA
....................                              lcd_gotoxy(0,1);
13A2:  CLRF   4D
13A4:  MOVLW  01
13A6:  MOVWF  4E
13A8:  CALL   0648
....................                              printf(lcd_putc," 1>555 2>LM224");
13AC:  MOVLW  CE
13AE:  MOVWF  FF6
13B0:  MOVLW  03
13B2:  MOVWF  FF7
13B4:  CALL   06EC
....................                              lcd_gotoxy(0,2);
13B8:  CLRF   4D
13BA:  MOVLW  02
13BC:  MOVWF  4E
13BE:  CALL   0648
....................                              printf(lcd_putc," 4>741 3>Pag.Sig.");
13C2:  MOVLW  DE
13C4:  MOVWF  FF6
13C6:  MOVLW  03
13C8:  MOVWF  FF7
13CA:  CALL   06EC
....................                              break;
13CE:  BRA    13D2
....................                            }
13D0:  BRA    1290
....................                         }   
....................                   }
....................                   if(Boton()==3){
13D2:  CALL   0734
13D6:  MOVF   01,W
13D8:  SUBLW  03
13DA:  BNZ   14C2
....................                         while(1){
....................                         printf(lcd_putc,"\f");
13DC:  MOVLW  0C
13DE:  MOVWF  4C
13E0:  CALL   06AA
....................                         lcd_gotoxy(0,1);
13E4:  CLRF   4D
13E6:  MOVLW  01
13E8:  MOVWF  4E
13EA:  CALL   0648
....................                         printf(lcd_putc," 1>LM358 2>LM348");
13EE:  MOVLW  F0
13F0:  MOVWF  FF6
13F2:  MOVLW  03
13F4:  MOVWF  FF7
13F6:  CALL   06EC
....................                         lcd_gotoxy(0,2);
13FA:  CLRF   4D
13FC:  MOVLW  02
13FE:  MOVWF  4E
1400:  CALL   0648
....................                         printf(lcd_putc," 4>LM324 3>RETURN");
1404:  MOVLW  02
1406:  MOVWF  FF6
1408:  MOVLW  04
140A:  MOVWF  FF7
140C:  CALL   06EC
....................                         delay_ms(3000);
1410:  MOVLW  0C
1412:  MOVWF  3F
1414:  MOVLW  FA
1416:  MOVWF  40
1418:  CALL   070C
141C:  DECFSZ 3F,F
141E:  BRA    1414
....................                         if(Boton()==4){
1420:  CALL   0734
1424:  MOVF   01,W
1426:  SUBLW  04
1428:  BNZ   14B2
....................                             while(1){
....................                                output_high(PIN_B7); // Colocar en alto pin B0 
142A:  BCF    F93.7
142C:  BSF    F8A.7
....................                                printf(lcd_putc,"\f"); //Limpiar la pantalla
142E:  MOVLW  0C
1430:  MOVWF  4C
1432:  CALL   06AA
....................                                lcd_gotoxy(0,1);
1436:  CLRF   4D
1438:  MOVLW  01
143A:  MOVWF  4E
143C:  CALL   0648
....................                                printf(lcd_putc," LM324 Testing..."); //  escribir eso
1440:  MOVLW  14
1442:  MOVWF  FF6
1444:  MOVLW  04
1446:  MOVWF  FF7
1448:  CALL   06EC
....................                                lcd_gotoxy(0,2);
144C:  CLRF   4D
144E:  MOVLW  02
1450:  MOVWF  4E
1452:  CALL   0648
....................                                printf(lcd_putc," 2>Volver");
1456:  MOVLW  26
1458:  MOVWF  FF6
145A:  MOVLW  04
145C:  MOVWF  FF7
145E:  CALL   06EC
....................                                delay_ms(1000);
1462:  MOVLW  04
1464:  MOVWF  3F
1466:  MOVLW  FA
1468:  MOVWF  40
146A:  CALL   070C
146E:  DECFSZ 3F,F
1470:  BRA    1466
....................                                if(Boton()==2){
1472:  CALL   0734
1476:  MOVF   01,W
1478:  SUBLW  02
147A:  BNZ   14B0
....................                                  output_low(PIN_B7); // Colocar en bajo pin B0
147C:  BCF    F93.7
147E:  BCF    F8A.7
....................                                  printf(lcd_putc,"\f"); //Limpiar la pantalla
1480:  MOVLW  0C
1482:  MOVWF  4C
1484:  CALL   06AA
....................                                  lcd_gotoxy(0,2);
1488:  CLRF   4D
148A:  MOVLW  02
148C:  MOVWF  4E
148E:  CALL   0648
....................                                  printf(lcd_putc," Regresando...");
1492:  MOVLW  30
1494:  MOVWF  FF6
1496:  MOVLW  04
1498:  MOVWF  FF7
149A:  CALL   06EC
....................                                  delay_ms(1000);
149E:  MOVLW  04
14A0:  MOVWF  3F
14A2:  MOVLW  FA
14A4:  MOVWF  40
14A6:  CALL   070C
14AA:  DECFSZ 3F,F
14AC:  BRA    14A2
....................                                  break;
14AE:  BRA    14B2
....................                                }
14B0:  BRA    142A
....................                             }   
....................                         }
....................                         if(Boton()==3){
14B2:  CALL   0734
14B6:  MOVF   01,W
14B8:  SUBLW  03
14BA:  BNZ   14C0
....................                             goto MENUPRINCIPAL;
14BC:  GOTO   0C44
....................                         }
14C0:  BRA    13DC
....................                     }
....................                 }           
14C2:  BRA    0DF6
....................                
....................             }
....................          }           
14C4:  GOTO   0C7E
....................       }
14C8:  MOVLB  0
14CA:  GOTO   0C44
....................    }
.................... }
14CE:  SLEEP 

Configuration Fuses:
   Word  1: C93F   PLL12 CPUDIV4 USBDIV INTRC FCMEN IESO
   Word  2: 1E3E   PUT BROWNOUT BORV21 VREGEN NOWDT WDT32768
   Word  3: 8700   CCP2C1 PBADEN LPT1OSC MCLR
   Word  4: 00A1   STVREN NOLVP ICSP2 NOXINST NODEBUG
   Word  5: C00F   NOPROTECT NOCPB NOCPD
   Word  6: E00F   NOWRT NOWRTC NOWRTB NOWRTD
   Word  7: 400F   NOEBTR NOEBTRB
